---
triple:          'arm64-apple-darwin'
binary-path:     '/Users/sankarshanghosh/Documents/GitHub/University-of-London/Object Oriented Programming/Midterm Project/Weather Application/CSVReader'
relocations:
  - { offsetInCU: 0xBD3E, offset: 0xBD3E, size: 0x8, addend: 0x0, symName: __ZNSt3__124__put_character_sequenceB7v160006IcNS_11char_traitsIcEEEERNS_13basic_ostreamIT_T0_EES7_PKS4_m, symObjAddr: 0x94B8, symBinAddr: 0x10000A0AC, symSize: 0x1F4 }
  - { offsetInCU: 0xE28B, offset: 0xE28B, size: 0x8, addend: 0x0, symName: __ZNSt3__17getlineB7v160006IcNS_11char_traitsIcEENS_9allocatorIcEEEERNS_13basic_istreamIT_T0_EES9_RNS_12basic_stringIS6_S7_T1_EE, symObjAddr: 0x85C, symBinAddr: 0x100001450, symSize: 0x5C }
  - { offsetInCU: 0xE626, offset: 0xE626, size: 0x8, addend: 0x0, symName: __ZNSt3__17getlineB7v160006IcNS_11char_traitsIcEENS_9allocatorIcEEEERNS_13basic_istreamIT_T0_EES9_RNS_12basic_stringIS6_S7_T1_EES6_, symObjAddr: 0x9EC, symBinAddr: 0x1000015E0, symSize: 0x238 }
  - { offsetInCU: 0xE6E4, offset: 0xE6E4, size: 0x8, addend: 0x0, symName: __ZNSt3__1lsB7v160006IcNS_11char_traitsIcEENS_9allocatorIcEEEERNS_13basic_ostreamIT_T0_EES9_RKNS_12basic_stringIS6_S7_T1_EE, symObjAddr: 0xF9C, symBinAddr: 0x100001B90, symSize: 0x4C }
  - { offsetInCU: 0xE73C, offset: 0xE73C, size: 0x8, addend: 0x0, symName: __ZNSt3__1lsB7v160006INS_11char_traitsIcEEEERNS_13basic_ostreamIcT_EES6_PKc, symObjAddr: 0xFE8, symBinAddr: 0x100001BDC, symSize: 0x48 }
  - { offsetInCU: 0xE782, offset: 0xE782, size: 0x8, addend: 0x0, symName: __ZNSt3__14endlB7v160006IcNS_11char_traitsIcEEEERNS_13basic_ostreamIT_T0_EES7_, symObjAddr: 0x105C, symBinAddr: 0x100001C50, symSize: 0x58 }
  - { offsetInCU: 0xE7D8, offset: 0xE7D8, size: 0x8, addend: 0x0, symName: __ZNSt3__1neB7v160006ERKNS_14__map_iteratorINS_15__tree_iteratorINS_12__value_typeINS_12basic_stringIcNS_11char_traitsIcEENS_9allocatorIcEEEENS_3mapIS8_NS_6vectorIfNS6_IfEEEENS_4lessIS8_EENS6_INS_4pairIKS8_SC_EEEEEEEEPNS_11__tree_nodeISK_PvEElEEEESS_, symObjAddr: 0x1614, symBinAddr: 0x100002208, symSize: 0x30 }
  - { offsetInCU: 0xE815, offset: 0xE815, size: 0x8, addend: 0x0, symName: __ZNSt3__1neB7v160006ERKNS_20__map_const_iteratorINS_21__tree_const_iteratorINS_12__value_typeINS_12basic_stringIcNS_11char_traitsIcEENS_9allocatorIcEEEENS_6vectorIfNS6_IfEEEEEEPNS_11__tree_nodeISC_PvEElEEEESK_, symObjAddr: 0x16DC, symBinAddr: 0x1000022D0, symSize: 0x30 }
  - { offsetInCU: 0xE852, offset: 0xE852, size: 0x8, addend: 0x0, symName: __ZNSt3__112__to_addressB7v160006IKcEEPT_S3_, symObjAddr: 0x1BB4, symBinAddr: 0x1000027A8, symSize: 0x14 }
  - { offsetInCU: 0xE887, offset: 0xE887, size: 0x8, addend: 0x0, symName: __ZNSt3__130__libcpp_is_constant_evaluatedB7v160006Ev, symObjAddr: 0x1CE0, symBinAddr: 0x1000028D4, symSize: 0xC }
  - { offsetInCU: 0xE8D7, offset: 0xE8D7, size: 0x8, addend: 0x0, symName: __ZNSt3__119__debug_db_insert_cB7v160006INS_12basic_stringIcNS_11char_traitsIcEENS_9allocatorIcEEEEEEvPT_, symObjAddr: 0x1E10, symBinAddr: 0x100002A04, symSize: 0x10 }
  - { offsetInCU: 0xE908, offset: 0xE908, size: 0x8, addend: 0x0, symName: __ZNSt3__117__libcpp_allocateB7v160006Emm, symObjAddr: 0x229C, symBinAddr: 0x100002E90, symSize: 0x28 }
  - { offsetInCU: 0xE945, offset: 0xE945, size: 0x8, addend: 0x0, symName: __ZNSt3__121__libcpp_operator_newB7v160006IJmEEEPvDpT_, symObjAddr: 0x22D8, symBinAddr: 0x100002ECC, symSize: 0x24 }
  - { offsetInCU: 0xE9B1, offset: 0xE9B1, size: 0x8, addend: 0x0, symName: __ZNSt3__118__debug_db_erase_cB7v160006INS_6vectorIfNS_9allocatorIfEEEEEEvPT_, symObjAddr: 0x2EF0, symBinAddr: 0x100003AE4, symSize: 0x10 }
  - { offsetInCU: 0xE9E2, offset: 0xE9E2, size: 0x8, addend: 0x0, symName: __ZNSt3__112__to_addressB7v160006IfEEPT_S2_, symObjAddr: 0x300C, symBinAddr: 0x100003C00, symSize: 0x14 }
  - { offsetInCU: 0xEA17, offset: 0xEA17, size: 0x8, addend: 0x0, symName: __ZNSt3__119__libcpp_deallocateB7v160006EPvmm, symObjAddr: 0x3170, symBinAddr: 0x100003D64, symSize: 0x30 }
  - { offsetInCU: 0xEA5F, offset: 0xEA5F, size: 0x8, addend: 0x0, symName: __ZNSt3__127__do_deallocate_handle_sizeB7v160006IJEEEvPvmDpT_, symObjAddr: 0x31A0, symBinAddr: 0x100003D94, symSize: 0x28 }
  - { offsetInCU: 0xEA9D, offset: 0xEA9D, size: 0x8, addend: 0x0, symName: __ZNSt3__124__libcpp_operator_deleteB7v160006IJPvEEEvDpT_, symObjAddr: 0x31C8, symBinAddr: 0x100003DBC, symSize: 0x24 }
  - { offsetInCU: 0xEAD2, offset: 0xEAD2, size: 0x8, addend: 0x0, symName: __ZNSt3__19use_facetB7v160006INS_5ctypeIcEEEERKT_RKNS_6localeE, symObjAddr: 0x34D4, symBinAddr: 0x1000040C8, symSize: 0x2C }
  - { offsetInCU: 0xEFA1, offset: 0xEFA1, size: 0x8, addend: 0x0, symName: __ZNSt3__119__debug_db_insert_cB7v160006INS_6vectorINS_12basic_stringIcNS_11char_traitsIcEENS_9allocatorIcEEEENS5_IS7_EEEEEEvPT_, symObjAddr: 0x3864, symBinAddr: 0x100004458, symSize: 0x10 }
  - { offsetInCU: 0xEFD2, offset: 0xEFD2, size: 0x8, addend: 0x0, symName: __ZNSt3__118__debug_db_erase_cB7v160006INS_6vectorINS_12basic_stringIcNS_11char_traitsIcEENS_9allocatorIcEEEENS5_IS7_EEEEEEvPT_, symObjAddr: 0x3B3C, symBinAddr: 0x100004730, symSize: 0x10 }
  - { offsetInCU: 0xF003, offset: 0xF003, size: 0x8, addend: 0x0, symName: __ZNSt3__112__to_addressB7v160006INS_12basic_stringIcNS_11char_traitsIcEENS_9allocatorIcEEEEEEPT_S8_, symObjAddr: 0x3C58, symBinAddr: 0x10000484C, symSize: 0x14 }
  - { offsetInCU: 0xF038, offset: 0xF038, size: 0x8, addend: 0x0, symName: __ZNSt3__125__debug_db_invalidate_allB7v160006INS_12basic_stringIcNS_11char_traitsIcEENS_9allocatorIcEEEEEEvPT_, symObjAddr: 0x41B0, symBinAddr: 0x100004DA4, symSize: 0x10 }
  - { offsetInCU: 0xF29E, offset: 0xF29E, size: 0x8, addend: 0x0, symName: __ZNSt3__13maxB7v160006ImEERKT_S3_S3_, symObjAddr: 0x49A8, symBinAddr: 0x10000559C, symSize: 0x2C }
  - { offsetInCU: 0xF2E1, offset: 0xF2E1, size: 0x8, addend: 0x0, symName: __ZNSt3__13minB7v160006ImEERKT_S3_S3_, symObjAddr: 0x49D4, symBinAddr: 0x1000055C8, symSize: 0x2C }
  - { offsetInCU: 0xF525, offset: 0xF525, size: 0x8, addend: 0x0, symName: __ZNSt3__13minB7v160006ImNS_6__lessImmEEEERKT_S5_S5_T0_, symObjAddr: 0x4A60, symBinAddr: 0x100005654, symSize: 0x54 }
  - { offsetInCU: 0xF5BA, offset: 0xF5BA, size: 0x8, addend: 0x0, symName: __ZNSt3__120__throw_length_errorB7v160006EPKc, symObjAddr: 0x4B40, symBinAddr: 0x100005734, symSize: 0x64 }
  - { offsetInCU: 0xF5E2, offset: 0xF5E2, size: 0x8, addend: 0x0, symName: __ZNSt3__13maxB7v160006ImNS_6__lessImmEEEERKT_S5_S5_T0_, symObjAddr: 0x4C24, symBinAddr: 0x100005818, symSize: 0x54 }
  - { offsetInCU: 0xF63C, offset: 0xF63C, size: 0x8, addend: 0x0, symName: __ZNSt3__119__allocate_at_leastB7v160006INS_9allocatorINS_12basic_stringIcNS_11char_traitsIcEENS1_IcEEEEEEEENS_19__allocation_resultINS_16allocator_traitsIT_E7pointerEEERSA_m, symObjAddr: 0x4D94, symBinAddr: 0x100005988, symSize: 0x40 }
  - { offsetInCU: 0xF67F, offset: 0xF67F, size: 0x8, addend: 0x0, symName: __ZNSt3__142__uninitialized_allocator_move_if_noexceptB7v160006INS_9allocatorINS_12basic_stringIcNS_11char_traitsIcEENS1_IcEEEEEENS_16reverse_iteratorIPS6_EESA_SA_EET2_RT_T0_T1_SB_, symObjAddr: 0x4F7C, symBinAddr: 0x100005B70, symSize: 0x134 }
  - { offsetInCU: 0xF71F, offset: 0xF71F, size: 0x8, addend: 0x0, symName: __ZNSt3__14swapB7v160006IPNS_12basic_stringIcNS_11char_traitsIcEENS_9allocatorIcEEEEEEvRT_S9_, symObjAddr: 0x50FC, symBinAddr: 0x100005CF0, symSize: 0x3C }
  - { offsetInCU: 0xF770, offset: 0xF770, size: 0x8, addend: 0x0, symName: __ZNSt3__125__debug_db_invalidate_allB7v160006INS_6vectorINS_12basic_stringIcNS_11char_traitsIcEENS_9allocatorIcEEEENS5_IS7_EEEEEEvPT_, symObjAddr: 0x5200, symBinAddr: 0x100005DF4, symSize: 0x10 }
  - { offsetInCU: 0xF7A1, offset: 0xF7A1, size: 0x8, addend: 0x0, symName: __ZNSt3__122__make_exception_guardB7v160006INS_29_AllocatorDestroyRangeReverseINS_9allocatorINS_12basic_stringIcNS_11char_traitsIcEENS2_IcEEEEEENS_16reverse_iteratorIPS7_EEEEEENS_28__exception_guard_exceptionsIT_EESE_, symObjAddr: 0x5210, symBinAddr: 0x100005E04, symSize: 0x4C }
  - { offsetInCU: 0xF7D7, offset: 0xF7D7, size: 0x8, addend: 0x0, symName: __ZNSt3__1neB7v160006IPNS_12basic_stringIcNS_11char_traitsIcEENS_9allocatorIcEEEES7_EEbRKNS_16reverse_iteratorIT_EERKNS8_IT0_EE, symObjAddr: 0x52A0, symBinAddr: 0x100005E94, symSize: 0x48 }
  - { offsetInCU: 0xF823, offset: 0xF823, size: 0x8, addend: 0x0, symName: __ZNSt3__112__to_addressB7v160006INS_16reverse_iteratorIPNS_12basic_stringIcNS_11char_traitsIcEENS_9allocatorIcEEEEEEvEENS_5decayIDTclsr19__to_address_helperIT_EE6__callclsr3stdE7declvalIRKSB_EEEEE4typeESD_, symObjAddr: 0x52E8, symBinAddr: 0x100005EDC, symSize: 0x24 }
  - { offsetInCU: 0xF882, offset: 0xF882, size: 0x8, addend: 0x0, symName: __ZNSt3__119__allocator_destroyB7v160006INS_9allocatorINS_12basic_stringIcNS_11char_traitsIcEENS1_IcEEEEEENS_16reverse_iteratorINS8_IPS6_EEEESB_EEvRT_T0_T1_, symObjAddr: 0x55A4, symBinAddr: 0x100006198, symSize: 0x70 }
  - { offsetInCU: 0xF8E7, offset: 0xF8E7, size: 0x8, addend: 0x0, symName: __ZNSt3__1neB7v160006INS_16reverse_iteratorIPNS_12basic_stringIcNS_11char_traitsIcEENS_9allocatorIcEEEEEES9_EEbRKNS1_IT_EERKNS1_IT0_EE, symObjAddr: 0x5650, symBinAddr: 0x100006244, symSize: 0x60 }
  - { offsetInCU: 0xF933, offset: 0xF933, size: 0x8, addend: 0x0, symName: __ZNSt3__112__to_addressB7v160006INS_16reverse_iteratorINS1_IPNS_12basic_stringIcNS_11char_traitsIcEENS_9allocatorIcEEEEEEEEvEENS_5decayIDTclsr19__to_address_helperIT_EE6__callclsr3stdE7declvalIRKSC_EEEEE4typeESE_, symObjAddr: 0x56B0, symBinAddr: 0x1000062A4, symSize: 0x24 }
  - { offsetInCU: 0xF992, offset: 0xF992, size: 0x8, addend: 0x0, symName: __ZNSt3__1ltB7v160006IcNS_11char_traitsIcEENS_9allocatorIcEEEEbRKNS_12basic_stringIT_T0_T1_EESB_, symObjAddr: 0x5FF0, symBinAddr: 0x100006BE4, symSize: 0x38 }
  - { offsetInCU: 0xFA0E, offset: 0xFA0E, size: 0x8, addend: 0x0, symName: __ZNSt3__118__constexpr_memcmpB7v160006IcEEiPKT_S3_m, symObjAddr: 0x62B4, symBinAddr: 0x100006EA8, symSize: 0x34 }
  - { offsetInCU: 0xFA7D, offset: 0xFA7D, size: 0x8, addend: 0x0, symName: __ZNSt3__127__tree_balance_after_insertB7v160006IPNS_16__tree_node_baseIPvEEEEvT_S5_, symObjAddr: 0x6A94, symBinAddr: 0x100007688, symSize: 0x340 }
  - { offsetInCU: 0xFAF1, offset: 0xFAF1, size: 0x8, addend: 0x0, symName: __ZNSt3__120__tree_is_left_childB7v160006IPNS_16__tree_node_baseIPvEEEEbT_, symObjAddr: 0x6E14, symBinAddr: 0x100007A08, symSize: 0x2C }
  - { offsetInCU: 0xFB26, offset: 0xFB26, size: 0x8, addend: 0x0, symName: __ZNSt3__118__tree_left_rotateB7v160006IPNS_16__tree_node_baseIPvEEEEvT_, symObjAddr: 0x6E40, symBinAddr: 0x100007A34, symSize: 0xEC }
  - { offsetInCU: 0xFB68, offset: 0xFB68, size: 0x8, addend: 0x0, symName: __ZNSt3__119__tree_right_rotateB7v160006IPNS_16__tree_node_baseIPvEEEEvT_, symObjAddr: 0x6F2C, symBinAddr: 0x100007B20, symSize: 0xCC }
  - { offsetInCU: 0xFBC8, offset: 0xFBC8, size: 0x8, addend: 0x0, symName: __ZNSt3__119__debug_db_insert_cB7v160006INS_6vectorIfNS_9allocatorIfEEEEEEvPT_, symObjAddr: 0x7CA0, symBinAddr: 0x100008894, symSize: 0x10 }
  - { offsetInCU: 0xFBF9, offset: 0xFBF9, size: 0x8, addend: 0x0, symName: __ZNSt3__119__allocate_at_leastB7v160006INS_9allocatorIfEEEENS_19__allocation_resultINS_16allocator_traitsIT_E7pointerEEERS5_m, symObjAddr: 0x874C, symBinAddr: 0x100009340, symSize: 0x40 }
  - { offsetInCU: 0xFC3C, offset: 0xFC3C, size: 0x8, addend: 0x0, symName: __ZNSt3__142__uninitialized_allocator_move_if_noexceptB7v160006INS_9allocatorIfEENS_16reverse_iteratorIPfEES5_fvEET1_RT_T0_S9_S6_, symObjAddr: 0x892C, symBinAddr: 0x100009520, symSize: 0xE8 }
  - { offsetInCU: 0xFCB9, offset: 0xFCB9, size: 0x8, addend: 0x0, symName: __ZNSt3__14swapB7v160006IPfEEvRT_S3_, symObjAddr: 0x8A60, symBinAddr: 0x100009654, symSize: 0x3C }
  - { offsetInCU: 0xFD0A, offset: 0xFD0A, size: 0x8, addend: 0x0, symName: __ZNSt3__125__debug_db_invalidate_allB7v160006INS_6vectorIfNS_9allocatorIfEEEEEEvPT_, symObjAddr: 0x8B48, symBinAddr: 0x10000973C, symSize: 0x10 }
  - { offsetInCU: 0xFD3B, offset: 0xFD3B, size: 0x8, addend: 0x0, symName: __ZNSt3__1neB7v160006IPfS1_EEbRKNS_16reverse_iteratorIT_EERKNS2_IT0_EE, symObjAddr: 0x8B58, symBinAddr: 0x10000974C, symSize: 0x48 }
  - { offsetInCU: 0xFDAC, offset: 0xFDAC, size: 0x8, addend: 0x0, symName: __ZNSt3__114__construct_atB7v160006IfJfEPfEEPT_S3_DpOT0_, symObjAddr: 0x8BA0, symBinAddr: 0x100009794, symSize: 0x2C }
  - { offsetInCU: 0xFE1C, offset: 0xFE1C, size: 0x8, addend: 0x0, symName: __ZNSt3__112__to_addressB7v160006INS_16reverse_iteratorIPfEEvEENS_5decayIDTclsr19__to_address_helperIT_EE6__callclsr3stdE7declvalIRKS5_EEEEE4typeES7_, symObjAddr: 0x8BCC, symBinAddr: 0x1000097C0, symSize: 0x24 }
  - { offsetInCU: 0xFE52, offset: 0xFE52, size: 0x8, addend: 0x0, symName: __ZNSt3__14moveB7v160006INS_16reverse_iteratorIPfEES3_EET0_T_S5_S4_, symObjAddr: 0x8C38, symBinAddr: 0x10000982C, symSize: 0x78 }
  - { offsetInCU: 0xFED5, offset: 0xFED5, size: 0x8, addend: 0x0, symName: __ZNSt3__16__moveB7v160006INS_17_ClassicAlgPolicyENS_16reverse_iteratorIPfEES4_S4_EENS_4pairIT0_T2_EES6_T1_S7_, symObjAddr: 0x8D20, symBinAddr: 0x100009914, symSize: 0x64 }
  - { offsetInCU: 0xFF41, offset: 0xFF41, size: 0x8, addend: 0x0, symName: __ZNSt3__123__dispatch_copy_or_moveB7v160006INS_17_ClassicAlgPolicyENS_11__move_loopIS1_EENS_14__move_trivialENS_16reverse_iteratorIPfEES7_S7_EENS_4pairIT2_T4_EES9_T3_SA_, symObjAddr: 0x8D84, symBinAddr: 0x100009978, symSize: 0x7C }
  - { offsetInCU: 0xFFBF, offset: 0xFFBF, size: 0x8, addend: 0x0, symName: __ZNSt3__121__unwrap_and_dispatchB7v160006INS_10__overloadINS_11__move_loopINS_17_ClassicAlgPolicyEEENS_14__move_trivialEEENS_16reverse_iteratorIPfEES9_S9_Li0EEENS_4pairIT0_T2_EESB_T1_SC_, symObjAddr: 0x8E00, symBinAddr: 0x1000099F4, symSize: 0x12C }
  - { offsetInCU: 0x1004F, offset: 0x1004F, size: 0x8, addend: 0x0, symName: __ZNSt3__114__unwrap_rangeB7v160006INS_16reverse_iteratorIPfEES3_EENS_4pairIT0_S5_EET_S7_, symObjAddr: 0x8F2C, symBinAddr: 0x100009B20, symSize: 0x84 }
  - { offsetInCU: 0x101A3, offset: 0x101A3, size: 0x8, addend: 0x0, symName: __ZNSt3__113__unwrap_iterB7v160006INS_16reverse_iteratorIPfEENS_18__unwrap_iter_implIS3_Lb0EEELi0EEEDTclsrT0_8__unwrapclsr3stdE7declvalIT_EEEES7_, symObjAddr: 0x9050, symBinAddr: 0x100009C44, symSize: 0x44 }
  - { offsetInCU: 0x101E7, offset: 0x101E7, size: 0x8, addend: 0x0, symName: __ZNSt3__19make_pairB7v160006INS_16reverse_iteratorIPfEES3_EENS_4pairINS_18__unwrap_ref_decayIT_E4typeENS5_IT0_E4typeEEEOS6_OS9_, symObjAddr: 0x9094, symBinAddr: 0x100009C88, symSize: 0x38 }
  - { offsetInCU: 0x10236, offset: 0x10236, size: 0x8, addend: 0x0, symName: __ZNSt3__114__rewrap_rangeB7v160006INS_16reverse_iteratorIPfEES3_EET_S4_T0_, symObjAddr: 0x90CC, symBinAddr: 0x100009CC0, symSize: 0x5C }
  - { offsetInCU: 0x10282, offset: 0x10282, size: 0x8, addend: 0x0, symName: __ZNSt3__113__rewrap_iterB7v160006INS_16reverse_iteratorIPfEES3_NS_18__unwrap_iter_implIS3_Lb0EEEEET_S6_T0_, symObjAddr: 0x9128, symBinAddr: 0x100009D1C, symSize: 0x88 }
  - { offsetInCU: 0x10389, offset: 0x10389, size: 0x8, addend: 0x0, symName: __ZNSt3__116__pad_and_outputB7v160006IcNS_11char_traitsIcEEEENS_19ostreambuf_iteratorIT_T0_EES6_PKS4_S8_S8_RNS_8ios_baseES4_, symObjAddr: 0x9710, symBinAddr: 0x10000A304, symSize: 0x248 }
  - { offsetInCU: 0x10458, offset: 0x10458, size: 0x8, addend: 0x0, symName: __ZNSt3__118__constexpr_strlenB7v160006EPKc, symObjAddr: 0x9BA4, symBinAddr: 0x10000A798, symSize: 0x24 }
  - { offsetInCU: 0x10484, offset: 0x10484, size: 0x8, addend: 0x0, symName: __ZNSt3__1neB7v160006ERKNS_15__tree_iteratorINS_12__value_typeINS_12basic_stringIcNS_11char_traitsIcEENS_9allocatorIcEEEENS_3mapIS7_NS_6vectorIfNS5_IfEEEENS_4lessIS7_EENS5_INS_4pairIKS7_SB_EEEEEEEEPNS_11__tree_nodeISJ_PvEElEESQ_, symObjAddr: 0x9D38, symBinAddr: 0x10000A92C, symSize: 0x34 }
  - { offsetInCU: 0x104C1, offset: 0x104C1, size: 0x8, addend: 0x0, symName: __ZNSt3__1eqB7v160006ERKNS_15__tree_iteratorINS_12__value_typeINS_12basic_stringIcNS_11char_traitsIcEENS_9allocatorIcEEEENS_3mapIS7_NS_6vectorIfNS5_IfEEEENS_4lessIS7_EENS5_INS_4pairIKS7_SB_EEEEEEEEPNS_11__tree_nodeISJ_PvEElEESQ_, symObjAddr: 0x9D6C, symBinAddr: 0x10000A960, symSize: 0x30 }
  - { offsetInCU: 0x104FE, offset: 0x104FE, size: 0x8, addend: 0x0, symName: __ZNSt3__116__tree_next_iterB7v160006IPNS_15__tree_end_nodeIPNS_16__tree_node_baseIPvEEEES5_EET_T0_, symObjAddr: 0x9DD4, symBinAddr: 0x10000A9C8, symSize: 0x80 }
  - { offsetInCU: 0x1053C, offset: 0x1053C, size: 0x8, addend: 0x0, symName: __ZNSt3__110__tree_minB7v160006IPNS_16__tree_node_baseIPvEEEET_S5_, symObjAddr: 0x9E54, symBinAddr: 0x10000AA48, symSize: 0x40 }
  - { offsetInCU: 0x105A4, offset: 0x105A4, size: 0x8, addend: 0x0, symName: __ZNSt3__1neB7v160006ERKNS_21__tree_const_iteratorINS_12__value_typeINS_12basic_stringIcNS_11char_traitsIcEENS_9allocatorIcEEEENS_6vectorIfNS5_IfEEEEEEPNS_11__tree_nodeISB_PvEElEESI_, symObjAddr: 0xA010, symBinAddr: 0x10000AC04, symSize: 0x34 }
  - { offsetInCU: 0x105E1, offset: 0x105E1, size: 0x8, addend: 0x0, symName: __ZNSt3__1eqB7v160006ERKNS_21__tree_const_iteratorINS_12__value_typeINS_12basic_stringIcNS_11char_traitsIcEENS_9allocatorIcEEEENS_6vectorIfNS5_IfEEEEEEPNS_11__tree_nodeISB_PvEElEESI_, symObjAddr: 0xA044, symBinAddr: 0x10000AC38, symSize: 0x30 }
  - { offsetInCU: 0x10877, offset: 0x10877, size: 0x8, addend: 0x0, symName: __ZSt28__throw_bad_array_new_lengthB7v160006v, symObjAddr: 0x2268, symBinAddr: 0x100002E5C, symSize: 0x34 }
  - { offsetInCU: 0x11706, offset: 0x11706, size: 0x8, addend: 0x0, symName: __ZNSt3__16vectorINS_12basic_stringIcNS_11char_traitsIcEENS_9allocatorIcEEEENS4_IS6_EEE26__swap_out_circular_bufferERNS_14__split_bufferIS6_RS7_EE, symObjAddr: 0x47D4, symBinAddr: 0x1000053C8, symSize: 0x118 }
  - { offsetInCU: 0x1179A, offset: 0x1179A, size: 0x8, addend: 0x0, symName: __ZNSt3__16vectorIfNS_9allocatorIfEEE26__swap_out_circular_bufferERNS_14__split_bufferIfRS2_EE, symObjAddr: 0x83D0, symBinAddr: 0x100008FC4, symSize: 0x118 }
  - { offsetInCU: 0x13A77, offset: 0x13A77, size: 0x8, addend: 0x0, symName: __Z19extractTemperaturesRKNSt3__112basic_stringIcNS_11char_traitsIcEENS_9allocatorIcEEEE, symObjAddr: 0x0, symBinAddr: 0x100000BF4, symSize: 0x650 }
  - { offsetInCU: 0x13C90, offset: 0x13C90, size: 0x8, addend: 0x0, symName: __ZNSt3__114basic_ifstreamIcNS_11char_traitsIcEEEC1ERKNS_12basic_stringIcS2_NS_9allocatorIcEEEEj, symObjAddr: 0x650, symBinAddr: 0x100001244, symSize: 0x17C }
  - { offsetInCU: 0x13CDA, offset: 0x13CDA, size: 0x8, addend: 0x0, symName: __ZNKSt3__114basic_ifstreamIcNS_11char_traitsIcEEE7is_openEv, symObjAddr: 0x7CC, symBinAddr: 0x1000013C0, symSize: 0x2C }
  - { offsetInCU: 0x13D02, offset: 0x13D02, size: 0x8, addend: 0x0, symName: __ZNSt3__112basic_stringIcNS_11char_traitsIcEENS_9allocatorIcEEEC1B7v160006Ev, symObjAddr: 0x804, symBinAddr: 0x1000013F8, symSize: 0x2C }
  - { offsetInCU: 0x13D2C, offset: 0x13D2C, size: 0x8, addend: 0x0, symName: __ZNSt3__13mapINS_12basic_stringIcNS_11char_traitsIcEENS_9allocatorIcEEEENS0_IS6_NS_6vectorIfNS4_IfEEEENS_4lessIS6_EENS4_INS_4pairIKS6_S9_EEEEEESB_NS4_INSC_ISD_SG_EEEEEC1B7v160006Ev, symObjAddr: 0x830, symBinAddr: 0x100001424, symSize: 0x2C }
  - { offsetInCU: 0x13DA8, offset: 0x13DA8, size: 0x8, addend: 0x0, symName: __ZNSt3__119basic_istringstreamIcNS_11char_traitsIcEENS_9allocatorIcEEEC1B7v160006ERKNS_12basic_stringIcS2_S4_EEj, symObjAddr: 0x8B8, symBinAddr: 0x1000014AC, symSize: 0x108 }
  - { offsetInCU: 0x13DF0, offset: 0x13DF0, size: 0x8, addend: 0x0, symName: __ZNSt3__16vectorINS_12basic_stringIcNS_11char_traitsIcEENS_9allocatorIcEEEENS4_IS6_EEEC1B7v160006Ev, symObjAddr: 0x9C0, symBinAddr: 0x1000015B4, symSize: 0x2C }
  - { offsetInCU: 0x13E1A, offset: 0x13E1A, size: 0x8, addend: 0x0, symName: __ZNKSt3__19basic_iosIcNS_11char_traitsIcEEEcvPvB7v160006Ev, symObjAddr: 0xC24, symBinAddr: 0x100001818, symSize: 0x4C }
  - { offsetInCU: 0x13E40, offset: 0x13E40, size: 0x8, addend: 0x0, symName: __ZNSt3__16vectorINS_12basic_stringIcNS_11char_traitsIcEENS_9allocatorIcEEEENS4_IS6_EEE9push_backB7v160006ERKS6_, symObjAddr: 0xC70, symBinAddr: 0x100001864, symSize: 0x6C }
  - { offsetInCU: 0x13E77, offset: 0x13E77, size: 0x8, addend: 0x0, symName: __ZNKSt3__112basic_stringIcNS_11char_traitsIcEENS_9allocatorIcEEE6substrB7v160006Emm, symObjAddr: 0xCDC, symBinAddr: 0x1000018D0, symSize: 0x68 }
  - { offsetInCU: 0x13EBB, offset: 0x13EBB, size: 0x8, addend: 0x0, symName: __ZNKSt3__112basic_stringIcNS_11char_traitsIcEENS_9allocatorIcEEE5emptyB7v160006Ev, symObjAddr: 0xD44, symBinAddr: 0x100001938, symSize: 0x30 }
  - { offsetInCU: 0x13EE1, offset: 0x13EE1, size: 0x8, addend: 0x0, symName: __ZNSt3__13mapINS_12basic_stringIcNS_11char_traitsIcEENS_9allocatorIcEEEENS0_IS6_NS_6vectorIfNS4_IfEEEENS_4lessIS6_EENS4_INS_4pairIKS6_S9_EEEEEESB_NS4_INSC_ISD_SG_EEEEEixERSD_, symObjAddr: 0xD74, symBinAddr: 0x100001968, symSize: 0xC8 }
  - { offsetInCU: 0x13F5A, offset: 0x13F5A, size: 0x8, addend: 0x0, symName: __ZNSt3__13mapINS_12basic_stringIcNS_11char_traitsIcEENS_9allocatorIcEEEENS_6vectorIfNS4_IfEEEENS_4lessIS6_EENS4_INS_4pairIKS6_S9_EEEEEixERSD_, symObjAddr: 0xE3C, symBinAddr: 0x100001A30, symSize: 0xC8 }
  - { offsetInCU: 0x13FD3, offset: 0x13FD3, size: 0x8, addend: 0x0, symName: __ZNSt3__16vectorINS_12basic_stringIcNS_11char_traitsIcEENS_9allocatorIcEEEENS4_IS6_EEEixB7v160006Em, symObjAddr: 0xF04, symBinAddr: 0x100001AF8, symSize: 0x2C }
  - { offsetInCU: 0x1400A, offset: 0x1400A, size: 0x8, addend: 0x0, symName: __ZNSt3__16vectorIfNS_9allocatorIfEEE9push_backB7v160006ERKf, symObjAddr: 0xF30, symBinAddr: 0x100001B24, symSize: 0x6C }
  - { offsetInCU: 0x14041, offset: 0x14041, size: 0x8, addend: 0x0, symName: __ZNSt3__113basic_ostreamIcNS_11char_traitsIcEEElsB7v160006EPFRS3_S4_E, symObjAddr: 0x1030, symBinAddr: 0x100001C24, symSize: 0x2C }
  - { offsetInCU: 0x14075, offset: 0x14075, size: 0x8, addend: 0x0, symName: __ZNKSt3__16vectorINS_12basic_stringIcNS_11char_traitsIcEENS_9allocatorIcEEEENS4_IS6_EEE4sizeB7v160006Ev, symObjAddr: 0x10B4, symBinAddr: 0x100001CA8, symSize: 0x28 }
  - { offsetInCU: 0x140A0, offset: 0x140A0, size: 0x8, addend: 0x0, symName: __ZNSt3__119basic_istringstreamIcNS_11char_traitsIcEENS_9allocatorIcEEED1Ev, symObjAddr: 0x10DC, symBinAddr: 0x100001CD0, symSize: 0x70 }
  - { offsetInCU: 0x140CD, offset: 0x140CD, size: 0x8, addend: 0x0, symName: __ZNSt3__114basic_ifstreamIcNS_11char_traitsIcEEE5closeEv, symObjAddr: 0x114C, symBinAddr: 0x100001D40, symSize: 0x58 }
  - { offsetInCU: 0x140F5, offset: 0x140F5, size: 0x8, addend: 0x0, symName: __ZNSt3__16vectorINS_12basic_stringIcNS_11char_traitsIcEENS_9allocatorIcEEEENS4_IS6_EEED1B7v160006Ev, symObjAddr: 0x11A4, symBinAddr: 0x100001D98, symSize: 0x2C }
  - { offsetInCU: 0x1411F, offset: 0x1411F, size: 0x8, addend: 0x0, symName: __ZNSt3__13mapINS_12basic_stringIcNS_11char_traitsIcEENS_9allocatorIcEEEENS0_IS6_NS_6vectorIfNS4_IfEEEENS_4lessIS6_EENS4_INS_4pairIKS6_S9_EEEEEESB_NS4_INSC_ISD_SG_EEEEED1B7v160006Ev, symObjAddr: 0x11D0, symBinAddr: 0x100001DC4, symSize: 0x2C }
  - { offsetInCU: 0x1414E, offset: 0x1414E, size: 0x8, addend: 0x0, symName: __ZNSt3__114basic_ifstreamIcNS_11char_traitsIcEEED1Ev, symObjAddr: 0x11FC, symBinAddr: 0x100001DF0, symSize: 0x70 }
  - { offsetInCU: 0x1417B, offset: 0x1417B, size: 0x8, addend: 0x0, symName: _main, symObjAddr: 0x126C, symBinAddr: 0x100001E60, symSize: 0x304 }
  - { offsetInCU: 0x142C7, offset: 0x142C7, size: 0x8, addend: 0x0, symName: __ZNSt3__112basic_stringIcNS_11char_traitsIcEENS_9allocatorIcEEEC1B7v160006IDnEEPKc, symObjAddr: 0x1570, symBinAddr: 0x100002164, symSize: 0x34 }
  - { offsetInCU: 0x14305, offset: 0x14305, size: 0x8, addend: 0x0, symName: __ZNSt3__13mapINS_12basic_stringIcNS_11char_traitsIcEENS_9allocatorIcEEEENS0_IS6_NS_6vectorIfNS4_IfEEEENS_4lessIS6_EENS4_INS_4pairIKS6_S9_EEEEEESB_NS4_INSC_ISD_SG_EEEEE5beginB7v160006Ev, symObjAddr: 0x15A4, symBinAddr: 0x100002198, symSize: 0x38 }
  - { offsetInCU: 0x1432B, offset: 0x1432B, size: 0x8, addend: 0x0, symName: __ZNSt3__13mapINS_12basic_stringIcNS_11char_traitsIcEENS_9allocatorIcEEEENS0_IS6_NS_6vectorIfNS4_IfEEEENS_4lessIS6_EENS4_INS_4pairIKS6_S9_EEEEEESB_NS4_INSC_ISD_SG_EEEEE3endB7v160006Ev, symObjAddr: 0x15DC, symBinAddr: 0x1000021D0, symSize: 0x38 }
  - { offsetInCU: 0x14351, offset: 0x14351, size: 0x8, addend: 0x0, symName: __ZNKSt3__114__map_iteratorINS_15__tree_iteratorINS_12__value_typeINS_12basic_stringIcNS_11char_traitsIcEENS_9allocatorIcEEEENS_3mapIS8_NS_6vectorIfNS6_IfEEEENS_4lessIS8_EENS6_INS_4pairIKS8_SC_EEEEEEEEPNS_11__tree_nodeISK_PvEElEEEdeB7v160006Ev, symObjAddr: 0x1644, symBinAddr: 0x100002238, symSize: 0x28 }
  - { offsetInCU: 0x14377, offset: 0x14377, size: 0x8, addend: 0x0, symName: __ZNKSt3__13mapINS_12basic_stringIcNS_11char_traitsIcEENS_9allocatorIcEEEENS_6vectorIfNS4_IfEEEENS_4lessIS6_EENS4_INS_4pairIKS6_S9_EEEEE5beginB7v160006Ev, symObjAddr: 0x166C, symBinAddr: 0x100002260, symSize: 0x38 }
  - { offsetInCU: 0x1439D, offset: 0x1439D, size: 0x8, addend: 0x0, symName: __ZNKSt3__13mapINS_12basic_stringIcNS_11char_traitsIcEENS_9allocatorIcEEEENS_6vectorIfNS4_IfEEEENS_4lessIS6_EENS4_INS_4pairIKS6_S9_EEEEE3endB7v160006Ev, symObjAddr: 0x16A4, symBinAddr: 0x100002298, symSize: 0x38 }
  - { offsetInCU: 0x143C3, offset: 0x143C3, size: 0x8, addend: 0x0, symName: __ZNKSt3__120__map_const_iteratorINS_21__tree_const_iteratorINS_12__value_typeINS_12basic_stringIcNS_11char_traitsIcEENS_9allocatorIcEEEENS_6vectorIfNS6_IfEEEEEEPNS_11__tree_nodeISC_PvEElEEEdeB7v160006Ev, symObjAddr: 0x170C, symBinAddr: 0x100002300, symSize: 0x28 }
  - { offsetInCU: 0x143E9, offset: 0x143E9, size: 0x8, addend: 0x0, symName: __ZNKSt3__16vectorIfNS_9allocatorIfEEE4sizeB7v160006Ev, symObjAddr: 0x1734, symBinAddr: 0x100002328, symSize: 0x28 }
  - { offsetInCU: 0x1440F, offset: 0x1440F, size: 0x8, addend: 0x0, symName: __ZNSt3__120__map_const_iteratorINS_21__tree_const_iteratorINS_12__value_typeINS_12basic_stringIcNS_11char_traitsIcEENS_9allocatorIcEEEENS_6vectorIfNS6_IfEEEEEEPNS_11__tree_nodeISC_PvEElEEEppB7v160006Ev, symObjAddr: 0x175C, symBinAddr: 0x100002350, symSize: 0x2C }
  - { offsetInCU: 0x14435, offset: 0x14435, size: 0x8, addend: 0x0, symName: __ZNSt3__114__map_iteratorINS_15__tree_iteratorINS_12__value_typeINS_12basic_stringIcNS_11char_traitsIcEENS_9allocatorIcEEEENS_3mapIS8_NS_6vectorIfNS6_IfEEEENS_4lessIS8_EENS6_INS_4pairIKS8_SC_EEEEEEEEPNS_11__tree_nodeISK_PvEElEEEppB7v160006Ev, symObjAddr: 0x1788, symBinAddr: 0x10000237C, symSize: 0x2C }
  - { offsetInCU: 0x1445B, offset: 0x1445B, size: 0x8, addend: 0x0, symName: __ZNSt3__119basic_istringstreamIcNS_11char_traitsIcEENS_9allocatorIcEEED2Ev, symObjAddr: 0x17B4, symBinAddr: 0x1000023A8, symSize: 0x9C }
  - { offsetInCU: 0x14495, offset: 0x14495, size: 0x8, addend: 0x0, symName: __ZTv0_n24_NSt3__119basic_istringstreamIcNS_11char_traitsIcEENS_9allocatorIcEEED1Ev, symObjAddr: 0x1850, symBinAddr: 0x100002444, symSize: 0x28 }
  - { offsetInCU: 0x144B1, offset: 0x144B1, size: 0x8, addend: 0x0, symName: __ZNSt3__115basic_stringbufIcNS_11char_traitsIcEENS_9allocatorIcEEED1Ev, symObjAddr: 0x1878, symBinAddr: 0x10000246C, symSize: 0x2C }
  - { offsetInCU: 0x144DE, offset: 0x144DE, size: 0x8, addend: 0x0, symName: __ZNSt3__115basic_stringbufIcNS_11char_traitsIcEENS_9allocatorIcEEED2Ev, symObjAddr: 0x18A4, symBinAddr: 0x100002498, symSize: 0x78 }
  - { offsetInCU: 0x1450B, offset: 0x1450B, size: 0x8, addend: 0x0, symName: __ZNSt3__114basic_ifstreamIcNS_11char_traitsIcEEED2Ev, symObjAddr: 0x191C, symBinAddr: 0x100002510, symSize: 0x9C }
  - { offsetInCU: 0x14545, offset: 0x14545, size: 0x8, addend: 0x0, symName: __ZTv0_n24_NSt3__114basic_ifstreamIcNS_11char_traitsIcEEED1Ev, symObjAddr: 0x19B8, symBinAddr: 0x1000025AC, symSize: 0x28 }
  - { offsetInCU: 0x1455C, offset: 0x1455C, size: 0x8, addend: 0x0, symName: __ZNSt3__19basic_iosIcNS_11char_traitsIcEEEC2B7v160006Ev, symObjAddr: 0x19E0, symBinAddr: 0x1000025D4, symSize: 0x44 }
  - { offsetInCU: 0x14586, offset: 0x14586, size: 0x8, addend: 0x0, symName: __ZNSt3__113basic_istreamIcNS_11char_traitsIcEEEC2B7v160006EPNS_15basic_streambufIcS2_EE, symObjAddr: 0x1A24, symBinAddr: 0x100002618, symSize: 0x64 }
  - { offsetInCU: 0x145CB, offset: 0x145CB, size: 0x8, addend: 0x0, symName: __ZNSt3__113basic_filebufIcNS_11char_traitsIcEEE4openERKNS_12basic_stringIcS2_NS_9allocatorIcEEEEj, symObjAddr: 0x1A88, symBinAddr: 0x10000267C, symSize: 0x44 }
  - { offsetInCU: 0x1460F, offset: 0x1460F, size: 0x8, addend: 0x0, symName: __ZNSt3__19basic_iosIcNS_11char_traitsIcEEE8setstateB7v160006Ej, symObjAddr: 0x1ACC, symBinAddr: 0x1000026C0, symSize: 0x2C }
  - { offsetInCU: 0x14644, offset: 0x14644, size: 0x8, addend: 0x0, symName: __ZNSt3__18ios_baseC2B7v160006Ev, symObjAddr: 0x1AF8, symBinAddr: 0x1000026EC, symSize: 0x24 }
  - { offsetInCU: 0x1466E, offset: 0x1466E, size: 0x8, addend: 0x0, symName: __ZNSt3__19basic_iosIcNS_11char_traitsIcEEE4initB7v160006EPNS_15basic_streambufIcS2_EE, symObjAddr: 0x1B1C, symBinAddr: 0x100002710, symSize: 0x44 }
  - { offsetInCU: 0x146A5, offset: 0x146A5, size: 0x8, addend: 0x0, symName: __ZNSt3__111char_traitsIcE3eofEv, symObjAddr: 0x1B60, symBinAddr: 0x100002754, symSize: 0x8 }
  - { offsetInCU: 0x146B9, offset: 0x146B9, size: 0x8, addend: 0x0, symName: __ZNKSt3__112basic_stringIcNS_11char_traitsIcEENS_9allocatorIcEEE5c_strB7v160006Ev, symObjAddr: 0x1B68, symBinAddr: 0x10000275C, symSize: 0x24 }
  - { offsetInCU: 0x146DF, offset: 0x146DF, size: 0x8, addend: 0x0, symName: __ZNKSt3__112basic_stringIcNS_11char_traitsIcEENS_9allocatorIcEEE4dataB7v160006Ev, symObjAddr: 0x1B8C, symBinAddr: 0x100002780, symSize: 0x28 }
  - { offsetInCU: 0x14705, offset: 0x14705, size: 0x8, addend: 0x0, symName: __ZNKSt3__112basic_stringIcNS_11char_traitsIcEENS_9allocatorIcEEE13__get_pointerB7v160006Ev, symObjAddr: 0x1BC8, symBinAddr: 0x1000027BC, symSize: 0x54 }
  - { offsetInCU: 0x1472B, offset: 0x1472B, size: 0x8, addend: 0x0, symName: __ZNKSt3__112basic_stringIcNS_11char_traitsIcEENS_9allocatorIcEEE9__is_longB7v160006Ev, symObjAddr: 0x1C1C, symBinAddr: 0x100002810, symSize: 0x74 }
  - { offsetInCU: 0x14751, offset: 0x14751, size: 0x8, addend: 0x0, symName: __ZNKSt3__112basic_stringIcNS_11char_traitsIcEENS_9allocatorIcEEE18__get_long_pointerB7v160006Ev, symObjAddr: 0x1C90, symBinAddr: 0x100002884, symSize: 0x28 }
  - { offsetInCU: 0x14777, offset: 0x14777, size: 0x8, addend: 0x0, symName: __ZNKSt3__112basic_stringIcNS_11char_traitsIcEENS_9allocatorIcEEE19__get_short_pointerB7v160006Ev, symObjAddr: 0x1CB8, symBinAddr: 0x1000028AC, symSize: 0x28 }
  - { offsetInCU: 0x1479D, offset: 0x1479D, size: 0x8, addend: 0x0, symName: __ZNKSt3__117__compressed_pairINS_12basic_stringIcNS_11char_traitsIcEENS_9allocatorIcEEE5__repES5_E5firstB7v160006Ev, symObjAddr: 0x1CEC, symBinAddr: 0x1000028E0, symSize: 0x24 }
  - { offsetInCU: 0x147C3, offset: 0x147C3, size: 0x8, addend: 0x0, symName: __ZNKSt3__122__compressed_pair_elemINS_12basic_stringIcNS_11char_traitsIcEENS_9allocatorIcEEE5__repELi0ELb0EE5__getB7v160006Ev, symObjAddr: 0x1D10, symBinAddr: 0x100002904, symSize: 0x14 }
  - { offsetInCU: 0x147E9, offset: 0x147E9, size: 0x8, addend: 0x0, symName: __ZNSt3__114pointer_traitsIPKcE10pointer_toB7v160006ERS1_, symObjAddr: 0x1D24, symBinAddr: 0x100002918, symSize: 0x14 }
  - { offsetInCU: 0x1480C, offset: 0x1480C, size: 0x8, addend: 0x0, symName: __ZNSt3__18ios_base8setstateB7v160006Ej, symObjAddr: 0x1D38, symBinAddr: 0x10000292C, symSize: 0x34 }
  - { offsetInCU: 0x14843, offset: 0x14843, size: 0x8, addend: 0x0, symName: __ZNKSt3__113basic_filebufIcNS_11char_traitsIcEEE7is_openEv, symObjAddr: 0x1D6C, symBinAddr: 0x100002960, symSize: 0x24 }
  - { offsetInCU: 0x1486B, offset: 0x1486B, size: 0x8, addend: 0x0, symName: __ZNSt3__112basic_stringIcNS_11char_traitsIcEENS_9allocatorIcEEEC2B7v160006Ev, symObjAddr: 0x1D90, symBinAddr: 0x100002984, symSize: 0x44 }
  - { offsetInCU: 0x1489B, offset: 0x1489B, size: 0x8, addend: 0x0, symName: __ZNSt3__117__compressed_pairINS_12basic_stringIcNS_11char_traitsIcEENS_9allocatorIcEEE5__repES5_EC1B7v160006INS_18__default_init_tagESA_EEOT_OT0_, symObjAddr: 0x1DD4, symBinAddr: 0x1000029C8, symSize: 0x3C }
  - { offsetInCU: 0x148F3, offset: 0x148F3, size: 0x8, addend: 0x0, symName: __ZNSt3__112basic_stringIcNS_11char_traitsIcEENS_9allocatorIcEEE14__default_initB7v160006Ev, symObjAddr: 0x1E20, symBinAddr: 0x100002A14, symSize: 0xB0 }
  - { offsetInCU: 0x14945, offset: 0x14945, size: 0x8, addend: 0x0, symName: __ZNSt3__117__compressed_pairINS_12basic_stringIcNS_11char_traitsIcEENS_9allocatorIcEEE5__repES5_EC2B7v160006INS_18__default_init_tagESA_EEOT_OT0_, symObjAddr: 0x1ED0, symBinAddr: 0x100002AC4, symSize: 0x3C }
  - { offsetInCU: 0x1499D, offset: 0x1499D, size: 0x8, addend: 0x0, symName: __ZNSt3__122__compressed_pair_elemINS_12basic_stringIcNS_11char_traitsIcEENS_9allocatorIcEEE5__repELi0ELb0EEC2B7v160006ENS_18__default_init_tagE, symObjAddr: 0x1F0C, symBinAddr: 0x100002B00, symSize: 0x14 }
  - { offsetInCU: 0x149D2, offset: 0x149D2, size: 0x8, addend: 0x0, symName: __ZNSt3__122__compressed_pair_elemINS_9allocatorIcEELi1ELb1EEC2B7v160006ENS_18__default_init_tagE, symObjAddr: 0x1F20, symBinAddr: 0x100002B14, symSize: 0x2C }
  - { offsetInCU: 0x14A07, offset: 0x14A07, size: 0x8, addend: 0x0, symName: __ZNSt3__19allocatorIcEC2B7v160006Ev, symObjAddr: 0x1F4C, symBinAddr: 0x100002B40, symSize: 0x2C }
  - { offsetInCU: 0x14A31, offset: 0x14A31, size: 0x8, addend: 0x0, symName: __ZNSt3__116__non_trivial_ifILb1ENS_9allocatorIcEEEC2B7v160006Ev, symObjAddr: 0x1F78, symBinAddr: 0x100002B6C, symSize: 0x14 }
  - { offsetInCU: 0x14A5B, offset: 0x14A5B, size: 0x8, addend: 0x0, symName: __ZNSt3__117__compressed_pairINS_12basic_stringIcNS_11char_traitsIcEENS_9allocatorIcEEE5__repES5_E5firstB7v160006Ev, symObjAddr: 0x1F8C, symBinAddr: 0x100002B80, symSize: 0x24 }
  - { offsetInCU: 0x14A81, offset: 0x14A81, size: 0x8, addend: 0x0, symName: __ZNSt3__112basic_stringIcNS_11char_traitsIcEENS_9allocatorIcEEE11__recommendB7v160006Em, symObjAddr: 0x1FB0, symBinAddr: 0x100002BA4, symSize: 0x9C }
  - { offsetInCU: 0x14AB4, offset: 0x14AB4, size: 0x8, addend: 0x0, symName: __ZNSt3__116allocator_traitsINS_9allocatorIcEEE8allocateB7v160006ERS2_m, symObjAddr: 0x204C, symBinAddr: 0x100002C40, symSize: 0x2C }
  - { offsetInCU: 0x14AE7, offset: 0x14AE7, size: 0x8, addend: 0x0, symName: __ZNSt3__112basic_stringIcNS_11char_traitsIcEENS_9allocatorIcEEE7__allocB7v160006Ev, symObjAddr: 0x2078, symBinAddr: 0x100002C6C, symSize: 0x24 }
  - { offsetInCU: 0x14B0D, offset: 0x14B0D, size: 0x8, addend: 0x0, symName: __ZNSt3__112basic_stringIcNS_11char_traitsIcEENS_9allocatorIcEEE16__begin_lifetimeB7v160006EPcm, symObjAddr: 0x209C, symBinAddr: 0x100002C90, symSize: 0x14 }
  - { offsetInCU: 0x14B40, offset: 0x14B40, size: 0x8, addend: 0x0, symName: __ZNSt3__112basic_stringIcNS_11char_traitsIcEENS_9allocatorIcEEE18__set_long_pointerB7v160006EPc, symObjAddr: 0x20B0, symBinAddr: 0x100002CA4, symSize: 0x38 }
  - { offsetInCU: 0x14B75, offset: 0x14B75, size: 0x8, addend: 0x0, symName: __ZNSt3__112basic_stringIcNS_11char_traitsIcEENS_9allocatorIcEEE14__set_long_capB7v160006Em, symObjAddr: 0x20E8, symBinAddr: 0x100002CDC, symSize: 0x70 }
  - { offsetInCU: 0x14BAA, offset: 0x14BAA, size: 0x8, addend: 0x0, symName: __ZNSt3__112basic_stringIcNS_11char_traitsIcEENS_9allocatorIcEEE15__set_long_sizeB7v160006Em, symObjAddr: 0x2158, symBinAddr: 0x100002D4C, symSize: 0x38 }
  - { offsetInCU: 0x14BDF, offset: 0x14BDF, size: 0x8, addend: 0x0, symName: __ZNSt3__122__compressed_pair_elemINS_12basic_stringIcNS_11char_traitsIcEENS_9allocatorIcEEE5__repELi0ELb0EE5__getB7v160006Ev, symObjAddr: 0x2190, symBinAddr: 0x100002D84, symSize: 0x14 }
  - { offsetInCU: 0x14C05, offset: 0x14C05, size: 0x8, addend: 0x0, symName: __ZNSt3__112basic_stringIcNS_11char_traitsIcEENS_9allocatorIcEEE10__align_itB7v160006ILm16EEEmm, symObjAddr: 0x21A4, symBinAddr: 0x100002D98, symSize: 0x1C }
  - { offsetInCU: 0x14C33, offset: 0x14C33, size: 0x8, addend: 0x0, symName: __ZNSt3__19allocatorIcE8allocateB7v160006Em, symObjAddr: 0x21C0, symBinAddr: 0x100002DB4, symSize: 0x84 }
  - { offsetInCU: 0x14C71, offset: 0x14C71, size: 0x8, addend: 0x0, symName: __ZNSt3__116allocator_traitsINS_9allocatorIcEEE8max_sizeB7v160006IS2_vEEmRKS2_, symObjAddr: 0x2244, symBinAddr: 0x100002E38, symSize: 0x24 }
  - { offsetInCU: 0x14C9F, offset: 0x14C9F, size: 0x8, addend: 0x0, symName: __ZNKSt3__19allocatorIcE8max_sizeB7v160006Ev, symObjAddr: 0x22C4, symBinAddr: 0x100002EB8, symSize: 0x14 }
  - { offsetInCU: 0x14CC5, offset: 0x14CC5, size: 0x8, addend: 0x0, symName: __ZNSt3__117__compressed_pairINS_12basic_stringIcNS_11char_traitsIcEENS_9allocatorIcEEE5__repES5_E6secondB7v160006Ev, symObjAddr: 0x22FC, symBinAddr: 0x100002EF0, symSize: 0x24 }
  - { offsetInCU: 0x14CEB, offset: 0x14CEB, size: 0x8, addend: 0x0, symName: __ZNSt3__122__compressed_pair_elemINS_9allocatorIcEELi1ELb1EE5__getB7v160006Ev, symObjAddr: 0x2320, symBinAddr: 0x100002F14, symSize: 0x14 }
  - { offsetInCU: 0x14D11, offset: 0x14D11, size: 0x8, addend: 0x0, symName: __ZNSt3__13mapINS_12basic_stringIcNS_11char_traitsIcEENS_9allocatorIcEEEENS0_IS6_NS_6vectorIfNS4_IfEEEENS_4lessIS6_EENS4_INS_4pairIKS6_S9_EEEEEESB_NS4_INSC_ISD_SG_EEEEEC2B7v160006Ev, symObjAddr: 0x2334, symBinAddr: 0x100002F28, symSize: 0x40 }
  - { offsetInCU: 0x14D3B, offset: 0x14D3B, size: 0x8, addend: 0x0, symName: __ZNSt3__119__map_value_compareINS_12basic_stringIcNS_11char_traitsIcEENS_9allocatorIcEEEENS_12__value_typeIS6_NS_3mapIS6_NS_6vectorIfNS4_IfEEEENS_4lessIS6_EENS4_INS_4pairIKS6_SB_EEEEEEEESD_Lb1EEC1B7v160006ESD_, symObjAddr: 0x2374, symBinAddr: 0x100002F68, symSize: 0x2C }
  - { offsetInCU: 0x14D74, offset: 0x14D74, size: 0x8, addend: 0x0, symName: __ZNSt3__16__treeINS_12__value_typeINS_12basic_stringIcNS_11char_traitsIcEENS_9allocatorIcEEEENS_3mapIS7_NS_6vectorIfNS5_IfEEEENS_4lessIS7_EENS5_INS_4pairIKS7_SB_EEEEEEEENS_19__map_value_compareIS7_SJ_SD_Lb1EEENS5_ISJ_EEEC1ERKSL_, symObjAddr: 0x23A0, symBinAddr: 0x100002F94, symSize: 0x34 }
  - { offsetInCU: 0x14DAF, offset: 0x14DAF, size: 0x8, addend: 0x0, symName: __ZNSt3__119__map_value_compareINS_12basic_stringIcNS_11char_traitsIcEENS_9allocatorIcEEEENS_12__value_typeIS6_NS_3mapIS6_NS_6vectorIfNS4_IfEEEENS_4lessIS6_EENS4_INS_4pairIKS6_SB_EEEEEEEESD_Lb1EEC2B7v160006ESD_, symObjAddr: 0x23D4, symBinAddr: 0x100002FC8, symSize: 0x14 }
  - { offsetInCU: 0x14DE8, offset: 0x14DE8, size: 0x8, addend: 0x0, symName: __ZNSt3__16__treeINS_12__value_typeINS_12basic_stringIcNS_11char_traitsIcEENS_9allocatorIcEEEENS_3mapIS7_NS_6vectorIfNS5_IfEEEENS_4lessIS7_EENS5_INS_4pairIKS7_SB_EEEEEEEENS_19__map_value_compareIS7_SJ_SD_Lb1EEENS5_ISJ_EEEC2ERKSL_, symObjAddr: 0x23E8, symBinAddr: 0x100002FDC, symSize: 0x70 }
  - { offsetInCU: 0x14E23, offset: 0x14E23, size: 0x8, addend: 0x0, symName: __ZNSt3__117__compressed_pairINS_15__tree_end_nodeIPNS_16__tree_node_baseIPvEEEENS_9allocatorINS_11__tree_nodeINS_12__value_typeINS_12basic_stringIcNS_11char_traitsIcEENS7_IcEEEENS_3mapISE_NS_6vectorIfNS7_IfEEEENS_4lessISE_EENS7_INS_4pairIKSE_SI_EEEEEEEES3_EEEEEC1B7v160006ILb1EvEEv, symObjAddr: 0x2458, symBinAddr: 0x10000304C, symSize: 0x2C }
  - { offsetInCU: 0x14E5E, offset: 0x14E5E, size: 0x8, addend: 0x0, symName: __ZNSt3__117__compressed_pairImNS_19__map_value_compareINS_12basic_stringIcNS_11char_traitsIcEENS_9allocatorIcEEEENS_12__value_typeIS7_NS_3mapIS7_NS_6vectorIfNS5_IfEEEENS_4lessIS7_EENS5_INS_4pairIKS7_SC_EEEEEEEESE_Lb1EEEEC1B7v160006IiRKSL_EEOT_OT0_, symObjAddr: 0x2484, symBinAddr: 0x100003078, symSize: 0x3C }
  - { offsetInCU: 0x14EB6, offset: 0x14EB6, size: 0x8, addend: 0x0, symName: __ZNSt3__16__treeINS_12__value_typeINS_12basic_stringIcNS_11char_traitsIcEENS_9allocatorIcEEEENS_3mapIS7_NS_6vectorIfNS5_IfEEEENS_4lessIS7_EENS5_INS_4pairIKS7_SB_EEEEEEEENS_19__map_value_compareIS7_SJ_SD_Lb1EEENS5_ISJ_EEE10__end_nodeB7v160006Ev, symObjAddr: 0x24C0, symBinAddr: 0x1000030B4, symSize: 0x2C }
  - { offsetInCU: 0x14EDC, offset: 0x14EDC, size: 0x8, addend: 0x0, symName: __ZNSt3__16__treeINS_12__value_typeINS_12basic_stringIcNS_11char_traitsIcEENS_9allocatorIcEEEENS_3mapIS7_NS_6vectorIfNS5_IfEEEENS_4lessIS7_EENS5_INS_4pairIKS7_SB_EEEEEEEENS_19__map_value_compareIS7_SJ_SD_Lb1EEENS5_ISJ_EEE12__begin_nodeB7v160006Ev, symObjAddr: 0x24EC, symBinAddr: 0x1000030E0, symSize: 0x14 }
  - { offsetInCU: 0x14F02, offset: 0x14F02, size: 0x8, addend: 0x0, symName: __ZNSt3__117__compressed_pairINS_15__tree_end_nodeIPNS_16__tree_node_baseIPvEEEENS_9allocatorINS_11__tree_nodeINS_12__value_typeINS_12basic_stringIcNS_11char_traitsIcEENS7_IcEEEENS_3mapISE_NS_6vectorIfNS7_IfEEEENS_4lessISE_EENS7_INS_4pairIKSE_SI_EEEEEEEES3_EEEEEC2B7v160006ILb1EvEEv, symObjAddr: 0x2500, symBinAddr: 0x1000030F4, symSize: 0x34 }
  - { offsetInCU: 0x14F37, offset: 0x14F37, size: 0x8, addend: 0x0, symName: __ZNSt3__122__compressed_pair_elemINS_15__tree_end_nodeIPNS_16__tree_node_baseIPvEEEELi0ELb0EEC2B7v160006ENS_16__value_init_tagE, symObjAddr: 0x2534, symBinAddr: 0x100003128, symSize: 0x2C }
  - { offsetInCU: 0x14F6C, offset: 0x14F6C, size: 0x8, addend: 0x0, symName: __ZNSt3__122__compressed_pair_elemINS_9allocatorINS_11__tree_nodeINS_12__value_typeINS_12basic_stringIcNS_11char_traitsIcEENS1_IcEEEENS_3mapIS8_NS_6vectorIfNS1_IfEEEENS_4lessIS8_EENS1_INS_4pairIKS8_SC_EEEEEEEEPvEEEELi1ELb1EEC2B7v160006ENS_16__value_init_tagE, symObjAddr: 0x2560, symBinAddr: 0x100003154, symSize: 0x2C }
  - { offsetInCU: 0x14FA1, offset: 0x14FA1, size: 0x8, addend: 0x0, symName: __ZNSt3__115__tree_end_nodeIPNS_16__tree_node_baseIPvEEEC1B7v160006Ev, symObjAddr: 0x258C, symBinAddr: 0x100003180, symSize: 0x2C }
  - { offsetInCU: 0x14FCB, offset: 0x14FCB, size: 0x8, addend: 0x0, symName: __ZNSt3__115__tree_end_nodeIPNS_16__tree_node_baseIPvEEEC2B7v160006Ev, symObjAddr: 0x25B8, symBinAddr: 0x1000031AC, symSize: 0x18 }
  - { offsetInCU: 0x14FF5, offset: 0x14FF5, size: 0x8, addend: 0x0, symName: __ZNSt3__19allocatorINS_11__tree_nodeINS_12__value_typeINS_12basic_stringIcNS_11char_traitsIcEENS0_IcEEEENS_3mapIS7_NS_6vectorIfNS0_IfEEEENS_4lessIS7_EENS0_INS_4pairIKS7_SB_EEEEEEEEPvEEEC2B7v160006Ev, symObjAddr: 0x25D0, symBinAddr: 0x1000031C4, symSize: 0x2C }
  - { offsetInCU: 0x1501F, offset: 0x1501F, size: 0x8, addend: 0x0, symName: __ZNSt3__116__non_trivial_ifILb1ENS_9allocatorINS_11__tree_nodeINS_12__value_typeINS_12basic_stringIcNS_11char_traitsIcEENS1_IcEEEENS_3mapIS8_NS_6vectorIfNS1_IfEEEENS_4lessIS8_EENS1_INS_4pairIKS8_SC_EEEEEEEEPvEEEEEC2B7v160006Ev, symObjAddr: 0x25FC, symBinAddr: 0x1000031F0, symSize: 0x14 }
  - { offsetInCU: 0x15049, offset: 0x15049, size: 0x8, addend: 0x0, symName: __ZNSt3__117__compressed_pairImNS_19__map_value_compareINS_12basic_stringIcNS_11char_traitsIcEENS_9allocatorIcEEEENS_12__value_typeIS7_NS_3mapIS7_NS_6vectorIfNS5_IfEEEENS_4lessIS7_EENS5_INS_4pairIKS7_SC_EEEEEEEESE_Lb1EEEEC2B7v160006IiRKSL_EEOT_OT0_, symObjAddr: 0x2610, symBinAddr: 0x100003204, symSize: 0x44 }
  - { offsetInCU: 0x150A1, offset: 0x150A1, size: 0x8, addend: 0x0, symName: __ZNSt3__122__compressed_pair_elemImLi0ELb0EEC2B7v160006IivEEOT_, symObjAddr: 0x2654, symBinAddr: 0x100003248, symSize: 0x24 }
  - { offsetInCU: 0x150E3, offset: 0x150E3, size: 0x8, addend: 0x0, symName: __ZNSt3__122__compressed_pair_elemINS_19__map_value_compareINS_12basic_stringIcNS_11char_traitsIcEENS_9allocatorIcEEEENS_12__value_typeIS7_NS_3mapIS7_NS_6vectorIfNS5_IfEEEENS_4lessIS7_EENS5_INS_4pairIKS7_SC_EEEEEEEESE_Lb1EEELi1ELb1EEC2B7v160006IRKSL_vEEOT_, symObjAddr: 0x2678, symBinAddr: 0x10000326C, symSize: 0x18 }
  - { offsetInCU: 0x15125, offset: 0x15125, size: 0x8, addend: 0x0, symName: __ZNSt3__114pointer_traitsIPNS_15__tree_end_nodeIPNS_16__tree_node_baseIPvEEEEE10pointer_toB7v160006ERS6_, symObjAddr: 0x2690, symBinAddr: 0x100003284, symSize: 0x14 }
  - { offsetInCU: 0x15148, offset: 0x15148, size: 0x8, addend: 0x0, symName: __ZNSt3__117__compressed_pairINS_15__tree_end_nodeIPNS_16__tree_node_baseIPvEEEENS_9allocatorINS_11__tree_nodeINS_12__value_typeINS_12basic_stringIcNS_11char_traitsIcEENS7_IcEEEENS_3mapISE_NS_6vectorIfNS7_IfEEEENS_4lessISE_EENS7_INS_4pairIKSE_SI_EEEEEEEES3_EEEEE5firstB7v160006Ev, symObjAddr: 0x26A4, symBinAddr: 0x100003298, symSize: 0x24 }
  - { offsetInCU: 0x1516E, offset: 0x1516E, size: 0x8, addend: 0x0, symName: __ZNSt3__122__compressed_pair_elemINS_15__tree_end_nodeIPNS_16__tree_node_baseIPvEEEELi0ELb0EE5__getB7v160006Ev, symObjAddr: 0x26C8, symBinAddr: 0x1000032BC, symSize: 0x14 }
  - { offsetInCU: 0x15194, offset: 0x15194, size: 0x8, addend: 0x0, symName: __ZNSt3__13mapINS_12basic_stringIcNS_11char_traitsIcEENS_9allocatorIcEEEENS0_IS6_NS_6vectorIfNS4_IfEEEENS_4lessIS6_EENS4_INS_4pairIKS6_S9_EEEEEESB_NS4_INSC_ISD_SG_EEEEED2B7v160006Ev, symObjAddr: 0x26DC, symBinAddr: 0x1000032D0, symSize: 0x2C }
  - { offsetInCU: 0x151BE, offset: 0x151BE, size: 0x8, addend: 0x0, symName: __ZNSt3__16__treeINS_12__value_typeINS_12basic_stringIcNS_11char_traitsIcEENS_9allocatorIcEEEENS_3mapIS7_NS_6vectorIfNS5_IfEEEENS_4lessIS7_EENS5_INS_4pairIKS7_SB_EEEEEEEENS_19__map_value_compareIS7_SJ_SD_Lb1EEENS5_ISJ_EEED1Ev, symObjAddr: 0x2708, symBinAddr: 0x1000032FC, symSize: 0x2C }
  - { offsetInCU: 0x151EA, offset: 0x151EA, size: 0x8, addend: 0x0, symName: __ZNSt3__16__treeINS_12__value_typeINS_12basic_stringIcNS_11char_traitsIcEENS_9allocatorIcEEEENS_3mapIS7_NS_6vectorIfNS5_IfEEEENS_4lessIS7_EENS5_INS_4pairIKS7_SB_EEEEEEEENS_19__map_value_compareIS7_SJ_SD_Lb1EEENS5_ISJ_EEED2Ev, symObjAddr: 0x2734, symBinAddr: 0x100003328, symSize: 0x38 }
  - { offsetInCU: 0x15216, offset: 0x15216, size: 0x8, addend: 0x0, symName: __ZNSt3__16__treeINS_12__value_typeINS_12basic_stringIcNS_11char_traitsIcEENS_9allocatorIcEEEENS_3mapIS7_NS_6vectorIfNS5_IfEEEENS_4lessIS7_EENS5_INS_4pairIKS7_SB_EEEEEEEENS_19__map_value_compareIS7_SJ_SD_Lb1EEENS5_ISJ_EEE7destroyEPNS_11__tree_nodeISJ_PvEE, symObjAddr: 0x276C, symBinAddr: 0x100003360, symSize: 0xC0 }
  - { offsetInCU: 0x1526A, offset: 0x1526A, size: 0x8, addend: 0x0, symName: __ZNKSt3__16__treeINS_12__value_typeINS_12basic_stringIcNS_11char_traitsIcEENS_9allocatorIcEEEENS_3mapIS7_NS_6vectorIfNS5_IfEEEENS_4lessIS7_EENS5_INS_4pairIKS7_SB_EEEEEEEENS_19__map_value_compareIS7_SJ_SD_Lb1EEENS5_ISJ_EEE6__rootB7v160006Ev, symObjAddr: 0x282C, symBinAddr: 0x100003420, symSize: 0x28 }
  - { offsetInCU: 0x15290, offset: 0x15290, size: 0x8, addend: 0x0, symName: __ZNSt3__16__treeINS_12__value_typeINS_12basic_stringIcNS_11char_traitsIcEENS_9allocatorIcEEEENS_3mapIS7_NS_6vectorIfNS5_IfEEEENS_4lessIS7_EENS5_INS_4pairIKS7_SB_EEEEEEEENS_19__map_value_compareIS7_SJ_SD_Lb1EEENS5_ISJ_EEE12__node_allocB7v160006Ev, symObjAddr: 0x2854, symBinAddr: 0x100003448, symSize: 0x28 }
  - { offsetInCU: 0x152B6, offset: 0x152B6, size: 0x8, addend: 0x0, symName: __ZNSt3__116allocator_traitsINS_9allocatorINS_11__tree_nodeINS_12__value_typeINS_12basic_stringIcNS_11char_traitsIcEENS1_IcEEEENS_3mapIS8_NS_6vectorIfNS1_IfEEEENS_4lessIS8_EENS1_INS_4pairIKS8_SC_EEEEEEEEPvEEEEE7destroyB7v160006INSF_ISG_SJ_EEvvEEvRSN_PT_, symObjAddr: 0x287C, symBinAddr: 0x100003470, symSize: 0x28 }
  - { offsetInCU: 0x152F0, offset: 0x152F0, size: 0x8, addend: 0x0, symName: __ZNSt3__122__tree_key_value_typesINS_12__value_typeINS_12basic_stringIcNS_11char_traitsIcEENS_9allocatorIcEEEENS_3mapIS7_NS_6vectorIfNS5_IfEEEENS_4lessIS7_EENS5_INS_4pairIKS7_SB_EEEEEEEEE9__get_ptrB7v160006ERSJ_, symObjAddr: 0x28A4, symBinAddr: 0x100003498, symSize: 0x24 }
  - { offsetInCU: 0x15314, offset: 0x15314, size: 0x8, addend: 0x0, symName: __ZNSt3__116allocator_traitsINS_9allocatorINS_11__tree_nodeINS_12__value_typeINS_12basic_stringIcNS_11char_traitsIcEENS1_IcEEEENS_3mapIS8_NS_6vectorIfNS1_IfEEEENS_4lessIS8_EENS1_INS_4pairIKS8_SC_EEEEEEEEPvEEEEE10deallocateB7v160006ERSN_PSM_m, symObjAddr: 0x28C8, symBinAddr: 0x1000034BC, symSize: 0x34 }
  - { offsetInCU: 0x15356, offset: 0x15356, size: 0x8, addend: 0x0, symName: __ZNSt3__117__compressed_pairINS_15__tree_end_nodeIPNS_16__tree_node_baseIPvEEEENS_9allocatorINS_11__tree_nodeINS_12__value_typeINS_12basic_stringIcNS_11char_traitsIcEENS7_IcEEEENS_3mapISE_NS_6vectorIfNS7_IfEEEENS_4lessISE_EENS7_INS_4pairIKSE_SI_EEEEEEEES3_EEEEE6secondB7v160006Ev, symObjAddr: 0x28FC, symBinAddr: 0x1000034F0, symSize: 0x24 }
  - { offsetInCU: 0x1537C, offset: 0x1537C, size: 0x8, addend: 0x0, symName: __ZNSt3__122__compressed_pair_elemINS_9allocatorINS_11__tree_nodeINS_12__value_typeINS_12basic_stringIcNS_11char_traitsIcEENS1_IcEEEENS_3mapIS8_NS_6vectorIfNS1_IfEEEENS_4lessIS8_EENS1_INS_4pairIKS8_SC_EEEEEEEEPvEEEELi1ELb1EE5__getB7v160006Ev, symObjAddr: 0x2920, symBinAddr: 0x100003514, symSize: 0x14 }
  - { offsetInCU: 0x153A2, offset: 0x153A2, size: 0x8, addend: 0x0, symName: __ZNSt3__14pairIKNS_12basic_stringIcNS_11char_traitsIcEENS_9allocatorIcEEEENS_3mapIS6_NS_6vectorIfNS4_IfEEEENS_4lessIS6_EENS4_INS0_IS7_SB_EEEEEEED1Ev, symObjAddr: 0x2934, symBinAddr: 0x100003528, symSize: 0x2C }
  - { offsetInCU: 0x153CE, offset: 0x153CE, size: 0x8, addend: 0x0, symName: __ZNSt3__14pairIKNS_12basic_stringIcNS_11char_traitsIcEENS_9allocatorIcEEEENS_3mapIS6_NS_6vectorIfNS4_IfEEEENS_4lessIS6_EENS4_INS0_IS7_SB_EEEEEEED2Ev, symObjAddr: 0x2960, symBinAddr: 0x100003554, symSize: 0x68 }
  - { offsetInCU: 0x153FA, offset: 0x153FA, size: 0x8, addend: 0x0, symName: __ZNSt3__13mapINS_12basic_stringIcNS_11char_traitsIcEENS_9allocatorIcEEEENS_6vectorIfNS4_IfEEEENS_4lessIS6_EENS4_INS_4pairIKS6_S9_EEEEED1B7v160006Ev, symObjAddr: 0x29C8, symBinAddr: 0x1000035BC, symSize: 0x2C }
  - { offsetInCU: 0x15424, offset: 0x15424, size: 0x8, addend: 0x0, symName: __ZNSt3__13mapINS_12basic_stringIcNS_11char_traitsIcEENS_9allocatorIcEEEENS_6vectorIfNS4_IfEEEENS_4lessIS6_EENS4_INS_4pairIKS6_S9_EEEEED2B7v160006Ev, symObjAddr: 0x29F4, symBinAddr: 0x1000035E8, symSize: 0x2C }
  - { offsetInCU: 0x1544E, offset: 0x1544E, size: 0x8, addend: 0x0, symName: __ZNSt3__16__treeINS_12__value_typeINS_12basic_stringIcNS_11char_traitsIcEENS_9allocatorIcEEEENS_6vectorIfNS5_IfEEEEEENS_19__map_value_compareIS7_SB_NS_4lessIS7_EELb1EEENS5_ISB_EEED1Ev, symObjAddr: 0x2A20, symBinAddr: 0x100003614, symSize: 0x2C }
  - { offsetInCU: 0x1547A, offset: 0x1547A, size: 0x8, addend: 0x0, symName: __ZNSt3__16__treeINS_12__value_typeINS_12basic_stringIcNS_11char_traitsIcEENS_9allocatorIcEEEENS_6vectorIfNS5_IfEEEEEENS_19__map_value_compareIS7_SB_NS_4lessIS7_EELb1EEENS5_ISB_EEED2Ev, symObjAddr: 0x2A4C, symBinAddr: 0x100003640, symSize: 0x38 }
  - { offsetInCU: 0x154A6, offset: 0x154A6, size: 0x8, addend: 0x0, symName: __ZNSt3__16__treeINS_12__value_typeINS_12basic_stringIcNS_11char_traitsIcEENS_9allocatorIcEEEENS_6vectorIfNS5_IfEEEEEENS_19__map_value_compareIS7_SB_NS_4lessIS7_EELb1EEENS5_ISB_EEE7destroyEPNS_11__tree_nodeISB_PvEE, symObjAddr: 0x2A84, symBinAddr: 0x100003678, symSize: 0xC0 }
  - { offsetInCU: 0x154FA, offset: 0x154FA, size: 0x8, addend: 0x0, symName: __ZNKSt3__16__treeINS_12__value_typeINS_12basic_stringIcNS_11char_traitsIcEENS_9allocatorIcEEEENS_6vectorIfNS5_IfEEEEEENS_19__map_value_compareIS7_SB_NS_4lessIS7_EELb1EEENS5_ISB_EEE6__rootB7v160006Ev, symObjAddr: 0x2B44, symBinAddr: 0x100003738, symSize: 0x28 }
  - { offsetInCU: 0x15520, offset: 0x15520, size: 0x8, addend: 0x0, symName: __ZNSt3__16__treeINS_12__value_typeINS_12basic_stringIcNS_11char_traitsIcEENS_9allocatorIcEEEENS_6vectorIfNS5_IfEEEEEENS_19__map_value_compareIS7_SB_NS_4lessIS7_EELb1EEENS5_ISB_EEE12__node_allocB7v160006Ev, symObjAddr: 0x2B6C, symBinAddr: 0x100003760, symSize: 0x28 }
  - { offsetInCU: 0x15546, offset: 0x15546, size: 0x8, addend: 0x0, symName: __ZNSt3__116allocator_traitsINS_9allocatorINS_11__tree_nodeINS_12__value_typeINS_12basic_stringIcNS_11char_traitsIcEENS1_IcEEEENS_6vectorIfNS1_IfEEEEEEPvEEEEE7destroyB7v160006INS_4pairIKS8_SB_EEvvEEvRSF_PT_, symObjAddr: 0x2B94, symBinAddr: 0x100003788, symSize: 0x28 }
  - { offsetInCU: 0x15580, offset: 0x15580, size: 0x8, addend: 0x0, symName: __ZNSt3__122__tree_key_value_typesINS_12__value_typeINS_12basic_stringIcNS_11char_traitsIcEENS_9allocatorIcEEEENS_6vectorIfNS5_IfEEEEEEE9__get_ptrB7v160006ERSB_, symObjAddr: 0x2BBC, symBinAddr: 0x1000037B0, symSize: 0x24 }
  - { offsetInCU: 0x155A4, offset: 0x155A4, size: 0x8, addend: 0x0, symName: __ZNSt3__116allocator_traitsINS_9allocatorINS_11__tree_nodeINS_12__value_typeINS_12basic_stringIcNS_11char_traitsIcEENS1_IcEEEENS_6vectorIfNS1_IfEEEEEEPvEEEEE10deallocateB7v160006ERSF_PSE_m, symObjAddr: 0x2BE0, symBinAddr: 0x1000037D4, symSize: 0x34 }
  - { offsetInCU: 0x155E6, offset: 0x155E6, size: 0x8, addend: 0x0, symName: __ZNSt3__117__compressed_pairINS_15__tree_end_nodeIPNS_16__tree_node_baseIPvEEEENS_9allocatorINS_11__tree_nodeINS_12__value_typeINS_12basic_stringIcNS_11char_traitsIcEENS7_IcEEEENS_6vectorIfNS7_IfEEEEEES3_EEEEE6secondB7v160006Ev, symObjAddr: 0x2C14, symBinAddr: 0x100003808, symSize: 0x24 }
  - { offsetInCU: 0x1560C, offset: 0x1560C, size: 0x8, addend: 0x0, symName: __ZNSt3__122__compressed_pair_elemINS_9allocatorINS_11__tree_nodeINS_12__value_typeINS_12basic_stringIcNS_11char_traitsIcEENS1_IcEEEENS_6vectorIfNS1_IfEEEEEEPvEEEELi1ELb1EE5__getB7v160006Ev, symObjAddr: 0x2C38, symBinAddr: 0x10000382C, symSize: 0x14 }
  - { offsetInCU: 0x15632, offset: 0x15632, size: 0x8, addend: 0x0, symName: __ZNSt3__14pairIKNS_12basic_stringIcNS_11char_traitsIcEENS_9allocatorIcEEEENS_6vectorIfNS4_IfEEEEED1Ev, symObjAddr: 0x2C4C, symBinAddr: 0x100003840, symSize: 0x2C }
  - { offsetInCU: 0x1565E, offset: 0x1565E, size: 0x8, addend: 0x0, symName: __ZNSt3__14pairIKNS_12basic_stringIcNS_11char_traitsIcEENS_9allocatorIcEEEENS_6vectorIfNS4_IfEEEEED2Ev, symObjAddr: 0x2C78, symBinAddr: 0x10000386C, symSize: 0x68 }
  - { offsetInCU: 0x1568A, offset: 0x1568A, size: 0x8, addend: 0x0, symName: __ZNSt3__16vectorIfNS_9allocatorIfEEED1B7v160006Ev, symObjAddr: 0x2CE0, symBinAddr: 0x1000038D4, symSize: 0x2C }
  - { offsetInCU: 0x156B4, offset: 0x156B4, size: 0x8, addend: 0x0, symName: __ZNSt3__16vectorIfNS_9allocatorIfEEED2B7v160006Ev, symObjAddr: 0x2D0C, symBinAddr: 0x100003900, symSize: 0x3C }
  - { offsetInCU: 0x156DE, offset: 0x156DE, size: 0x8, addend: 0x0, symName: __ZNSt3__16vectorIfNS_9allocatorIfEEE16__destroy_vectorC1ERS3_, symObjAddr: 0x2D48, symBinAddr: 0x10000393C, symSize: 0x34 }
  - { offsetInCU: 0x15717, offset: 0x15717, size: 0x8, addend: 0x0, symName: __ZNSt3__16vectorIfNS_9allocatorIfEEE16__destroy_vectorclB7v160006Ev, symObjAddr: 0x2D7C, symBinAddr: 0x100003970, symSize: 0x9C }
  - { offsetInCU: 0x1573D, offset: 0x1573D, size: 0x8, addend: 0x0, symName: __ZNSt3__16vectorIfNS_9allocatorIfEEE16__destroy_vectorC2ERS3_, symObjAddr: 0x2E18, symBinAddr: 0x100003A0C, symSize: 0x20 }
  - { offsetInCU: 0x15776, offset: 0x15776, size: 0x8, addend: 0x0, symName: __ZNKSt3__16vectorIfNS_9allocatorIfEEE17__annotate_deleteB7v160006Ev, symObjAddr: 0x2E38, symBinAddr: 0x100003A2C, symSize: 0xB8 }
  - { offsetInCU: 0x1579C, offset: 0x1579C, size: 0x8, addend: 0x0, symName: __ZNSt3__16vectorIfNS_9allocatorIfEEE7__clearB7v160006Ev, symObjAddr: 0x2F00, symBinAddr: 0x100003AF4, symSize: 0x28 }
  - { offsetInCU: 0x157C2, offset: 0x157C2, size: 0x8, addend: 0x0, symName: __ZNSt3__116allocator_traitsINS_9allocatorIfEEE10deallocateB7v160006ERS2_Pfm, symObjAddr: 0x2F28, symBinAddr: 0x100003B1C, symSize: 0x34 }
  - { offsetInCU: 0x15804, offset: 0x15804, size: 0x8, addend: 0x0, symName: __ZNSt3__16vectorIfNS_9allocatorIfEEE7__allocB7v160006Ev, symObjAddr: 0x2F5C, symBinAddr: 0x100003B50, symSize: 0x28 }
  - { offsetInCU: 0x1582A, offset: 0x1582A, size: 0x8, addend: 0x0, symName: __ZNKSt3__16vectorIfNS_9allocatorIfEEE8capacityB7v160006Ev, symObjAddr: 0x2F84, symBinAddr: 0x100003B78, symSize: 0x40 }
  - { offsetInCU: 0x15850, offset: 0x15850, size: 0x8, addend: 0x0, symName: __ZNKSt3__16vectorIfNS_9allocatorIfEEE31__annotate_contiguous_containerB7v160006EPKvS5_S5_S5_, symObjAddr: 0x2FC4, symBinAddr: 0x100003BB8, symSize: 0x20 }
  - { offsetInCU: 0x158A2, offset: 0x158A2, size: 0x8, addend: 0x0, symName: __ZNKSt3__16vectorIfNS_9allocatorIfEEE4dataB7v160006Ev, symObjAddr: 0x2FE4, symBinAddr: 0x100003BD8, symSize: 0x28 }
  - { offsetInCU: 0x158C8, offset: 0x158C8, size: 0x8, addend: 0x0, symName: __ZNSt3__16vectorIfNS_9allocatorIfEEE22__base_destruct_at_endB7v160006EPf, symObjAddr: 0x3020, symBinAddr: 0x100003C14, symSize: 0xA0 }
  - { offsetInCU: 0x1590C, offset: 0x1590C, size: 0x8, addend: 0x0, symName: __ZNSt3__116allocator_traitsINS_9allocatorIfEEE7destroyB7v160006IfvEEvRS2_PT_, symObjAddr: 0x30C0, symBinAddr: 0x100003CB4, symSize: 0x2C }
  - { offsetInCU: 0x15949, offset: 0x15949, size: 0x8, addend: 0x0, symName: __ZNSt3__19allocatorIfE7destroyB7v160006EPf, symObjAddr: 0x30EC, symBinAddr: 0x100003CE0, symSize: 0x14 }
  - { offsetInCU: 0x1597D, offset: 0x1597D, size: 0x8, addend: 0x0, symName: __ZNSt3__19allocatorIfE10deallocateB7v160006EPfm, symObjAddr: 0x3100, symBinAddr: 0x100003CF4, symSize: 0x70 }
  - { offsetInCU: 0x159BF, offset: 0x159BF, size: 0x8, addend: 0x0, symName: __ZNSt3__117__compressed_pairIPfNS_9allocatorIfEEE6secondB7v160006Ev, symObjAddr: 0x31EC, symBinAddr: 0x100003DE0, symSize: 0x24 }
  - { offsetInCU: 0x159E5, offset: 0x159E5, size: 0x8, addend: 0x0, symName: __ZNSt3__122__compressed_pair_elemINS_9allocatorIfEELi1ELb1EE5__getB7v160006Ev, symObjAddr: 0x3210, symBinAddr: 0x100003E04, symSize: 0x14 }
  - { offsetInCU: 0x15A0B, offset: 0x15A0B, size: 0x8, addend: 0x0, symName: __ZNKSt3__16vectorIfNS_9allocatorIfEEE9__end_capB7v160006Ev, symObjAddr: 0x3224, symBinAddr: 0x100003E18, symSize: 0x28 }
  - { offsetInCU: 0x15A31, offset: 0x15A31, size: 0x8, addend: 0x0, symName: __ZNKSt3__117__compressed_pairIPfNS_9allocatorIfEEE5firstB7v160006Ev, symObjAddr: 0x324C, symBinAddr: 0x100003E40, symSize: 0x24 }
  - { offsetInCU: 0x15A57, offset: 0x15A57, size: 0x8, addend: 0x0, symName: __ZNKSt3__122__compressed_pair_elemIPfLi0ELb0EE5__getB7v160006Ev, symObjAddr: 0x3270, symBinAddr: 0x100003E64, symSize: 0x14 }
  - { offsetInCU: 0x15A7D, offset: 0x15A7D, size: 0x8, addend: 0x0, symName: __ZNSt3__112__value_typeINS_12basic_stringIcNS_11char_traitsIcEENS_9allocatorIcEEEENS_6vectorIfNS4_IfEEEEE11__get_valueB7v160006Ev, symObjAddr: 0x3284, symBinAddr: 0x100003E78, symSize: 0x14 }
  - { offsetInCU: 0x15AA3, offset: 0x15AA3, size: 0x8, addend: 0x0, symName: __ZNSt3__19allocatorINS_11__tree_nodeINS_12__value_typeINS_12basic_stringIcNS_11char_traitsIcEENS0_IcEEEENS_6vectorIfNS0_IfEEEEEEPvEEE10deallocateB7v160006EPSD_m, symObjAddr: 0x3298, symBinAddr: 0x100003E8C, symSize: 0x74 }
  - { offsetInCU: 0x15AE5, offset: 0x15AE5, size: 0x8, addend: 0x0, symName: __ZNKSt3__16__treeINS_12__value_typeINS_12basic_stringIcNS_11char_traitsIcEENS_9allocatorIcEEEENS_6vectorIfNS5_IfEEEEEENS_19__map_value_compareIS7_SB_NS_4lessIS7_EELb1EEENS5_ISB_EEE10__end_nodeB7v160006Ev, symObjAddr: 0x330C, symBinAddr: 0x100003F00, symSize: 0x2C }
  - { offsetInCU: 0x15B0B, offset: 0x15B0B, size: 0x8, addend: 0x0, symName: __ZNKSt3__117__compressed_pairINS_15__tree_end_nodeIPNS_16__tree_node_baseIPvEEEENS_9allocatorINS_11__tree_nodeINS_12__value_typeINS_12basic_stringIcNS_11char_traitsIcEENS7_IcEEEENS_6vectorIfNS7_IfEEEEEES3_EEEEE5firstB7v160006Ev, symObjAddr: 0x3338, symBinAddr: 0x100003F2C, symSize: 0x24 }
  - { offsetInCU: 0x15B31, offset: 0x15B31, size: 0x8, addend: 0x0, symName: __ZNKSt3__122__compressed_pair_elemINS_15__tree_end_nodeIPNS_16__tree_node_baseIPvEEEELi0ELb0EE5__getB7v160006Ev, symObjAddr: 0x335C, symBinAddr: 0x100003F50, symSize: 0x14 }
  - { offsetInCU: 0x15B57, offset: 0x15B57, size: 0x8, addend: 0x0, symName: __ZNSt3__112__value_typeINS_12basic_stringIcNS_11char_traitsIcEENS_9allocatorIcEEEENS_3mapIS6_NS_6vectorIfNS4_IfEEEENS_4lessIS6_EENS4_INS_4pairIKS6_SA_EEEEEEE11__get_valueB7v160006Ev, symObjAddr: 0x3370, symBinAddr: 0x100003F64, symSize: 0x14 }
  - { offsetInCU: 0x15B7D, offset: 0x15B7D, size: 0x8, addend: 0x0, symName: __ZNSt3__19allocatorINS_11__tree_nodeINS_12__value_typeINS_12basic_stringIcNS_11char_traitsIcEENS0_IcEEEENS_3mapIS7_NS_6vectorIfNS0_IfEEEENS_4lessIS7_EENS0_INS_4pairIKS7_SB_EEEEEEEEPvEEE10deallocateB7v160006EPSL_m, symObjAddr: 0x3384, symBinAddr: 0x100003F78, symSize: 0x74 }
  - { offsetInCU: 0x15BBF, offset: 0x15BBF, size: 0x8, addend: 0x0, symName: __ZNKSt3__16__treeINS_12__value_typeINS_12basic_stringIcNS_11char_traitsIcEENS_9allocatorIcEEEENS_3mapIS7_NS_6vectorIfNS5_IfEEEENS_4lessIS7_EENS5_INS_4pairIKS7_SB_EEEEEEEENS_19__map_value_compareIS7_SJ_SD_Lb1EEENS5_ISJ_EEE10__end_nodeB7v160006Ev, symObjAddr: 0x33F8, symBinAddr: 0x100003FEC, symSize: 0x2C }
  - { offsetInCU: 0x15BE5, offset: 0x15BE5, size: 0x8, addend: 0x0, symName: __ZNKSt3__117__compressed_pairINS_15__tree_end_nodeIPNS_16__tree_node_baseIPvEEEENS_9allocatorINS_11__tree_nodeINS_12__value_typeINS_12basic_stringIcNS_11char_traitsIcEENS7_IcEEEENS_3mapISE_NS_6vectorIfNS7_IfEEEENS_4lessISE_EENS7_INS_4pairIKSE_SI_EEEEEEEES3_EEEEE5firstB7v160006Ev, symObjAddr: 0x3424, symBinAddr: 0x100004018, symSize: 0x24 }
  - { offsetInCU: 0x15C0B, offset: 0x15C0B, size: 0x8, addend: 0x0, symName: __ZNKSt3__19basic_iosIcNS_11char_traitsIcEEE5widenB7v160006Ec, symObjAddr: 0x3448, symBinAddr: 0x10000403C, symSize: 0x8C }
  - { offsetInCU: 0x15C79, offset: 0x15C79, size: 0x8, addend: 0x0, symName: __ZNKSt3__15ctypeIcE5widenB7v160006Ec, symObjAddr: 0x3500, symBinAddr: 0x1000040F4, symSize: 0x38 }
  - { offsetInCU: 0x15CAE, offset: 0x15CAE, size: 0x8, addend: 0x0, symName: __ZNSt3__115basic_stringbufIcNS_11char_traitsIcEENS_9allocatorIcEEEC1B7v160006ERKNS_12basic_stringIcS2_S4_EEj, symObjAddr: 0x3538, symBinAddr: 0x10000412C, symSize: 0x3C }
  - { offsetInCU: 0x15CF4, offset: 0x15CF4, size: 0x8, addend: 0x0, symName: __ZNSt3__115basic_stringbufIcNS_11char_traitsIcEENS_9allocatorIcEEEC2B7v160006ERKNS_12basic_stringIcS2_S4_EEj, symObjAddr: 0x3574, symBinAddr: 0x100004168, symSize: 0xD8 }
  - { offsetInCU: 0x15D3A, offset: 0x15D3A, size: 0x8, addend: 0x0, symName: __ZNKSt3__112basic_stringIcNS_11char_traitsIcEENS_9allocatorIcEEE13get_allocatorB7v160006Ev, symObjAddr: 0x364C, symBinAddr: 0x100004240, symSize: 0x24 }
  - { offsetInCU: 0x15D60, offset: 0x15D60, size: 0x8, addend: 0x0, symName: __ZNSt3__112basic_stringIcNS_11char_traitsIcEENS_9allocatorIcEEEC1B7v160006ERKS4_, symObjAddr: 0x3670, symBinAddr: 0x100004264, symSize: 0x34 }
  - { offsetInCU: 0x15D99, offset: 0x15D99, size: 0x8, addend: 0x0, symName: __ZNKSt3__112basic_stringIcNS_11char_traitsIcEENS_9allocatorIcEEE7__allocB7v160006Ev, symObjAddr: 0x36A4, symBinAddr: 0x100004298, symSize: 0x24 }
  - { offsetInCU: 0x15DBF, offset: 0x15DBF, size: 0x8, addend: 0x0, symName: __ZNKSt3__117__compressed_pairINS_12basic_stringIcNS_11char_traitsIcEENS_9allocatorIcEEE5__repES5_E6secondB7v160006Ev, symObjAddr: 0x36C8, symBinAddr: 0x1000042BC, symSize: 0x24 }
  - { offsetInCU: 0x15DE5, offset: 0x15DE5, size: 0x8, addend: 0x0, symName: __ZNKSt3__122__compressed_pair_elemINS_9allocatorIcEELi1ELb1EE5__getB7v160006Ev, symObjAddr: 0x36EC, symBinAddr: 0x1000042E0, symSize: 0x14 }
  - { offsetInCU: 0x15E0B, offset: 0x15E0B, size: 0x8, addend: 0x0, symName: __ZNSt3__112basic_stringIcNS_11char_traitsIcEENS_9allocatorIcEEEC2B7v160006ERKS4_, symObjAddr: 0x3700, symBinAddr: 0x1000042F4, symSize: 0x48 }
  - { offsetInCU: 0x15E44, offset: 0x15E44, size: 0x8, addend: 0x0, symName: __ZNSt3__117__compressed_pairINS_12basic_stringIcNS_11char_traitsIcEENS_9allocatorIcEEE5__repES5_EC1B7v160006INS_18__default_init_tagERKS5_EEOT_OT0_, symObjAddr: 0x3748, symBinAddr: 0x10000433C, symSize: 0x3C }
  - { offsetInCU: 0x15E9C, offset: 0x15E9C, size: 0x8, addend: 0x0, symName: __ZNSt3__117__compressed_pairINS_12basic_stringIcNS_11char_traitsIcEENS_9allocatorIcEEE5__repES5_EC2B7v160006INS_18__default_init_tagERKS5_EEOT_OT0_, symObjAddr: 0x3784, symBinAddr: 0x100004378, symSize: 0x40 }
  - { offsetInCU: 0x15EF4, offset: 0x15EF4, size: 0x8, addend: 0x0, symName: __ZNSt3__122__compressed_pair_elemINS_9allocatorIcEELi1ELb1EEC2B7v160006IRKS2_vEEOT_, symObjAddr: 0x37C4, symBinAddr: 0x1000043B8, symSize: 0x18 }
  - { offsetInCU: 0x15F36, offset: 0x15F36, size: 0x8, addend: 0x0, symName: __ZNSt3__16vectorINS_12basic_stringIcNS_11char_traitsIcEENS_9allocatorIcEEEENS4_IS6_EEEC2B7v160006Ev, symObjAddr: 0x37DC, symBinAddr: 0x1000043D0, symSize: 0x4C }
  - { offsetInCU: 0x15F66, offset: 0x15F66, size: 0x8, addend: 0x0, symName: __ZNSt3__117__compressed_pairIPNS_12basic_stringIcNS_11char_traitsIcEENS_9allocatorIcEEEENS4_IS6_EEEC1B7v160006IDnNS_18__default_init_tagEEEOT_OT0_, symObjAddr: 0x3828, symBinAddr: 0x10000441C, symSize: 0x3C }
  - { offsetInCU: 0x15FBE, offset: 0x15FBE, size: 0x8, addend: 0x0, symName: __ZNSt3__117__compressed_pairIPNS_12basic_stringIcNS_11char_traitsIcEENS_9allocatorIcEEEENS4_IS6_EEEC2B7v160006IDnNS_18__default_init_tagEEEOT_OT0_, symObjAddr: 0x3874, symBinAddr: 0x100004468, symSize: 0x40 }
  - { offsetInCU: 0x16016, offset: 0x16016, size: 0x8, addend: 0x0, symName: __ZNSt3__122__compressed_pair_elemIPNS_12basic_stringIcNS_11char_traitsIcEENS_9allocatorIcEEEELi0ELb0EEC2B7v160006IDnvEEOT_, symObjAddr: 0x38B4, symBinAddr: 0x1000044A8, symSize: 0x1C }
  - { offsetInCU: 0x16058, offset: 0x16058, size: 0x8, addend: 0x0, symName: __ZNSt3__122__compressed_pair_elemINS_9allocatorINS_12basic_stringIcNS_11char_traitsIcEENS1_IcEEEEEELi1ELb1EEC2B7v160006ENS_18__default_init_tagE, symObjAddr: 0x38D0, symBinAddr: 0x1000044C4, symSize: 0x2C }
  - { offsetInCU: 0x1608D, offset: 0x1608D, size: 0x8, addend: 0x0, symName: __ZNSt3__19allocatorINS_12basic_stringIcNS_11char_traitsIcEENS0_IcEEEEEC2B7v160006Ev, symObjAddr: 0x38FC, symBinAddr: 0x1000044F0, symSize: 0x2C }
  - { offsetInCU: 0x160B7, offset: 0x160B7, size: 0x8, addend: 0x0, symName: __ZNSt3__116__non_trivial_ifILb1ENS_9allocatorINS_12basic_stringIcNS_11char_traitsIcEENS1_IcEEEEEEEC2B7v160006Ev, symObjAddr: 0x3928, symBinAddr: 0x10000451C, symSize: 0x14 }
  - { offsetInCU: 0x160E1, offset: 0x160E1, size: 0x8, addend: 0x0, symName: __ZNSt3__16vectorINS_12basic_stringIcNS_11char_traitsIcEENS_9allocatorIcEEEENS4_IS6_EEED2B7v160006Ev, symObjAddr: 0x393C, symBinAddr: 0x100004530, symSize: 0x3C }
  - { offsetInCU: 0x1610B, offset: 0x1610B, size: 0x8, addend: 0x0, symName: __ZNSt3__16vectorINS_12basic_stringIcNS_11char_traitsIcEENS_9allocatorIcEEEENS4_IS6_EEE16__destroy_vectorC1ERS8_, symObjAddr: 0x3978, symBinAddr: 0x10000456C, symSize: 0x34 }
  - { offsetInCU: 0x16144, offset: 0x16144, size: 0x8, addend: 0x0, symName: __ZNSt3__16vectorINS_12basic_stringIcNS_11char_traitsIcEENS_9allocatorIcEEEENS4_IS6_EEE16__destroy_vectorclB7v160006Ev, symObjAddr: 0x39AC, symBinAddr: 0x1000045A0, symSize: 0x9C }
  - { offsetInCU: 0x1616A, offset: 0x1616A, size: 0x8, addend: 0x0, symName: __ZNSt3__16vectorINS_12basic_stringIcNS_11char_traitsIcEENS_9allocatorIcEEEENS4_IS6_EEE16__destroy_vectorC2ERS8_, symObjAddr: 0x3A48, symBinAddr: 0x10000463C, symSize: 0x20 }
  - { offsetInCU: 0x161A3, offset: 0x161A3, size: 0x8, addend: 0x0, symName: __ZNKSt3__16vectorINS_12basic_stringIcNS_11char_traitsIcEENS_9allocatorIcEEEENS4_IS6_EEE17__annotate_deleteB7v160006Ev, symObjAddr: 0x3A68, symBinAddr: 0x10000465C, symSize: 0xD4 }
  - { offsetInCU: 0x161C9, offset: 0x161C9, size: 0x8, addend: 0x0, symName: __ZNSt3__16vectorINS_12basic_stringIcNS_11char_traitsIcEENS_9allocatorIcEEEENS4_IS6_EEE7__clearB7v160006Ev, symObjAddr: 0x3B4C, symBinAddr: 0x100004740, symSize: 0x28 }
  - { offsetInCU: 0x161EF, offset: 0x161EF, size: 0x8, addend: 0x0, symName: __ZNSt3__116allocator_traitsINS_9allocatorINS_12basic_stringIcNS_11char_traitsIcEENS1_IcEEEEEEE10deallocateB7v160006ERS7_PS6_m, symObjAddr: 0x3B74, symBinAddr: 0x100004768, symSize: 0x34 }
  - { offsetInCU: 0x16231, offset: 0x16231, size: 0x8, addend: 0x0, symName: __ZNSt3__16vectorINS_12basic_stringIcNS_11char_traitsIcEENS_9allocatorIcEEEENS4_IS6_EEE7__allocB7v160006Ev, symObjAddr: 0x3BA8, symBinAddr: 0x10000479C, symSize: 0x28 }
  - { offsetInCU: 0x16257, offset: 0x16257, size: 0x8, addend: 0x0, symName: __ZNKSt3__16vectorINS_12basic_stringIcNS_11char_traitsIcEENS_9allocatorIcEEEENS4_IS6_EEE8capacityB7v160006Ev, symObjAddr: 0x3BD0, symBinAddr: 0x1000047C4, symSize: 0x40 }
  - { offsetInCU: 0x1627D, offset: 0x1627D, size: 0x8, addend: 0x0, symName: __ZNKSt3__16vectorINS_12basic_stringIcNS_11char_traitsIcEENS_9allocatorIcEEEENS4_IS6_EEE31__annotate_contiguous_containerB7v160006EPKvSA_SA_SA_, symObjAddr: 0x3C10, symBinAddr: 0x100004804, symSize: 0x20 }
  - { offsetInCU: 0x162CF, offset: 0x162CF, size: 0x8, addend: 0x0, symName: __ZNKSt3__16vectorINS_12basic_stringIcNS_11char_traitsIcEENS_9allocatorIcEEEENS4_IS6_EEE4dataB7v160006Ev, symObjAddr: 0x3C30, symBinAddr: 0x100004824, symSize: 0x28 }
  - { offsetInCU: 0x162F5, offset: 0x162F5, size: 0x8, addend: 0x0, symName: __ZNSt3__16vectorINS_12basic_stringIcNS_11char_traitsIcEENS_9allocatorIcEEEENS4_IS6_EEE22__base_destruct_at_endB7v160006EPS6_, symObjAddr: 0x3C6C, symBinAddr: 0x100004860, symSize: 0xA0 }
  - { offsetInCU: 0x16339, offset: 0x16339, size: 0x8, addend: 0x0, symName: __ZNSt3__116allocator_traitsINS_9allocatorINS_12basic_stringIcNS_11char_traitsIcEENS1_IcEEEEEEE7destroyB7v160006IS6_vEEvRS7_PT_, symObjAddr: 0x3D0C, symBinAddr: 0x100004900, symSize: 0x2C }
  - { offsetInCU: 0x16376, offset: 0x16376, size: 0x8, addend: 0x0, symName: __ZNSt3__19allocatorINS_12basic_stringIcNS_11char_traitsIcEENS0_IcEEEEE7destroyB7v160006EPS5_, symObjAddr: 0x3D38, symBinAddr: 0x10000492C, symSize: 0x28 }
  - { offsetInCU: 0x163AA, offset: 0x163AA, size: 0x8, addend: 0x0, symName: __ZNSt3__19allocatorINS_12basic_stringIcNS_11char_traitsIcEENS0_IcEEEEE10deallocateB7v160006EPS5_m, symObjAddr: 0x3D60, symBinAddr: 0x100004954, symSize: 0x74 }
  - { offsetInCU: 0x163EC, offset: 0x163EC, size: 0x8, addend: 0x0, symName: __ZNSt3__117__compressed_pairIPNS_12basic_stringIcNS_11char_traitsIcEENS_9allocatorIcEEEENS4_IS6_EEE6secondB7v160006Ev, symObjAddr: 0x3DD4, symBinAddr: 0x1000049C8, symSize: 0x24 }
  - { offsetInCU: 0x16412, offset: 0x16412, size: 0x8, addend: 0x0, symName: __ZNSt3__122__compressed_pair_elemINS_9allocatorINS_12basic_stringIcNS_11char_traitsIcEENS1_IcEEEEEELi1ELb1EE5__getB7v160006Ev, symObjAddr: 0x3DF8, symBinAddr: 0x1000049EC, symSize: 0x14 }
  - { offsetInCU: 0x16438, offset: 0x16438, size: 0x8, addend: 0x0, symName: __ZNKSt3__16vectorINS_12basic_stringIcNS_11char_traitsIcEENS_9allocatorIcEEEENS4_IS6_EEE9__end_capB7v160006Ev, symObjAddr: 0x3E0C, symBinAddr: 0x100004A00, symSize: 0x28 }
  - { offsetInCU: 0x1645E, offset: 0x1645E, size: 0x8, addend: 0x0, symName: __ZNKSt3__117__compressed_pairIPNS_12basic_stringIcNS_11char_traitsIcEENS_9allocatorIcEEEENS4_IS6_EEE5firstB7v160006Ev, symObjAddr: 0x3E34, symBinAddr: 0x100004A28, symSize: 0x24 }
  - { offsetInCU: 0x16484, offset: 0x16484, size: 0x8, addend: 0x0, symName: __ZNKSt3__122__compressed_pair_elemIPNS_12basic_stringIcNS_11char_traitsIcEENS_9allocatorIcEEEELi0ELb0EE5__getB7v160006Ev, symObjAddr: 0x3E58, symBinAddr: 0x100004A4C, symSize: 0x14 }
  - { offsetInCU: 0x164C8, offset: 0x164C8, size: 0x8, addend: 0x0, symName: __ZNKSt3__113basic_istreamIcNS_11char_traitsIcEEE6sentrycvbB7v160006Ev, symObjAddr: 0x3E6C, symBinAddr: 0x100004A60, symSize: 0x1C }
  - { offsetInCU: 0x164EE, offset: 0x164EE, size: 0x8, addend: 0x0, symName: __ZNSt3__112basic_stringIcNS_11char_traitsIcEENS_9allocatorIcEEE5clearB7v160006Ev, symObjAddr: 0x3E88, symBinAddr: 0x100004A7C, symSize: 0x9C }
  - { offsetInCU: 0x16516, offset: 0x16516, size: 0x8, addend: 0x0, symName: __ZNKSt3__19basic_iosIcNS_11char_traitsIcEEE5rdbufB7v160006Ev, symObjAddr: 0x3F24, symBinAddr: 0x100004B18, symSize: 0x24 }
  - { offsetInCU: 0x1653E, offset: 0x1653E, size: 0x8, addend: 0x0, symName: __ZNSt3__115basic_streambufIcNS_11char_traitsIcEEE6sbumpcB7v160006Ev, symObjAddr: 0x3F48, symBinAddr: 0x100004B3C, symSize: 0x78 }
  - { offsetInCU: 0x16564, offset: 0x16564, size: 0x8, addend: 0x0, symName: __ZNSt3__111char_traitsIcE11eq_int_typeEii, symObjAddr: 0x3FC0, symBinAddr: 0x100004BB4, symSize: 0x28 }
  - { offsetInCU: 0x16595, offset: 0x16595, size: 0x8, addend: 0x0, symName: __ZNSt3__111char_traitsIcE12to_char_typeEi, symObjAddr: 0x3FE8, symBinAddr: 0x100004BDC, symSize: 0x18 }
  - { offsetInCU: 0x165B8, offset: 0x165B8, size: 0x8, addend: 0x0, symName: __ZNSt3__111char_traitsIcE2eqEcc, symObjAddr: 0x4000, symBinAddr: 0x100004BF4, symSize: 0x28 }
  - { offsetInCU: 0x165E9, offset: 0x165E9, size: 0x8, addend: 0x0, symName: __ZNKSt3__112basic_stringIcNS_11char_traitsIcEENS_9allocatorIcEEE4sizeB7v160006Ev, symObjAddr: 0x4028, symBinAddr: 0x100004C1C, symSize: 0x54 }
  - { offsetInCU: 0x1660F, offset: 0x1660F, size: 0x8, addend: 0x0, symName: __ZNKSt3__112basic_stringIcNS_11char_traitsIcEENS_9allocatorIcEEE8max_sizeB7v160006Ev, symObjAddr: 0x407C, symBinAddr: 0x100004C70, symSize: 0xAC }
  - { offsetInCU: 0x16661, offset: 0x16661, size: 0x8, addend: 0x0, symName: __ZNSt3__18ios_base18__setstate_nothrowB7v160006Ej, symObjAddr: 0x4128, symBinAddr: 0x100004D1C, symSize: 0x64 }
  - { offsetInCU: 0x16696, offset: 0x16696, size: 0x8, addend: 0x0, symName: __ZNKSt3__19basic_iosIcNS_11char_traitsIcEEE10exceptionsB7v160006Ev, symObjAddr: 0x418C, symBinAddr: 0x100004D80, symSize: 0x24 }
  - { offsetInCU: 0x166BC, offset: 0x166BC, size: 0x8, addend: 0x0, symName: __ZNSt3__111char_traitsIcE6assignERcRKc, symObjAddr: 0x41C0, symBinAddr: 0x100004DB4, symSize: 0x24 }
  - { offsetInCU: 0x166ED, offset: 0x166ED, size: 0x8, addend: 0x0, symName: __ZNSt3__112basic_stringIcNS_11char_traitsIcEENS_9allocatorIcEEE18__get_long_pointerB7v160006Ev, symObjAddr: 0x41E4, symBinAddr: 0x100004DD8, symSize: 0x28 }
  - { offsetInCU: 0x16713, offset: 0x16713, size: 0x8, addend: 0x0, symName: __ZNSt3__112basic_stringIcNS_11char_traitsIcEENS_9allocatorIcEEE19__get_short_pointerB7v160006Ev, symObjAddr: 0x420C, symBinAddr: 0x100004E00, symSize: 0x28 }
  - { offsetInCU: 0x16739, offset: 0x16739, size: 0x8, addend: 0x0, symName: __ZNSt3__112basic_stringIcNS_11char_traitsIcEENS_9allocatorIcEEE16__set_short_sizeB7v160006Em, symObjAddr: 0x4234, symBinAddr: 0x100004E28, symSize: 0x78 }
  - { offsetInCU: 0x1676E, offset: 0x1676E, size: 0x8, addend: 0x0, symName: __ZNSt3__114pointer_traitsIPcE10pointer_toB7v160006ERc, symObjAddr: 0x42AC, symBinAddr: 0x100004EA0, symSize: 0x14 }
  - { offsetInCU: 0x16791, offset: 0x16791, size: 0x8, addend: 0x0, symName: __ZNKSt3__18ios_base5rdbufB7v160006Ev, symObjAddr: 0x42C0, symBinAddr: 0x100004EB4, symSize: 0x18 }
  - { offsetInCU: 0x167B7, offset: 0x167B7, size: 0x8, addend: 0x0, symName: __ZNSt3__111char_traitsIcE11to_int_typeEc, symObjAddr: 0x42D8, symBinAddr: 0x100004ECC, symSize: 0x14 }
  - { offsetInCU: 0x167DA, offset: 0x167DA, size: 0x8, addend: 0x0, symName: __ZNKSt3__112basic_stringIcNS_11char_traitsIcEENS_9allocatorIcEEE15__get_long_sizeB7v160006Ev, symObjAddr: 0x42EC, symBinAddr: 0x100004EE0, symSize: 0x28 }
  - { offsetInCU: 0x16800, offset: 0x16800, size: 0x8, addend: 0x0, symName: __ZNKSt3__112basic_stringIcNS_11char_traitsIcEENS_9allocatorIcEEE16__get_short_sizeB7v160006Ev, symObjAddr: 0x4314, symBinAddr: 0x100004F08, symSize: 0x34 }
  - { offsetInCU: 0x16826, offset: 0x16826, size: 0x8, addend: 0x0, symName: __ZNSt3__114numeric_limitsImE3maxB7v160006Ev, symObjAddr: 0x4348, symBinAddr: 0x100004F3C, symSize: 0x14 }
  - { offsetInCU: 0x1683A, offset: 0x1683A, size: 0x8, addend: 0x0, symName: __ZNSt3__123__libcpp_numeric_limitsImLb1EE3maxB7v160006Ev, symObjAddr: 0x435C, symBinAddr: 0x100004F50, symSize: 0x8 }
  - { offsetInCU: 0x1684E, offset: 0x1684E, size: 0x8, addend: 0x0, symName: __ZNKSt3__18ios_base10exceptionsB7v160006Ev, symObjAddr: 0x4364, symBinAddr: 0x100004F58, symSize: 0x18 }
  - { offsetInCU: 0x16876, offset: 0x16876, size: 0x8, addend: 0x0, symName: __ZNKSt3__19basic_iosIcNS_11char_traitsIcEEE4failB7v160006Ev, symObjAddr: 0x437C, symBinAddr: 0x100004F70, symSize: 0x28 }
  - { offsetInCU: 0x1689C, offset: 0x1689C, size: 0x8, addend: 0x0, symName: __ZNKSt3__18ios_base4failB7v160006Ev, symObjAddr: 0x43A4, symBinAddr: 0x100004F98, symSize: 0x28 }
  - { offsetInCU: 0x168C4, offset: 0x168C4, size: 0x8, addend: 0x0, symName: __ZNSt3__16vectorINS_12basic_stringIcNS_11char_traitsIcEENS_9allocatorIcEEEENS4_IS6_EEE9__end_capB7v160006Ev, symObjAddr: 0x43CC, symBinAddr: 0x100004FC0, symSize: 0x28 }
  - { offsetInCU: 0x168EA, offset: 0x168EA, size: 0x8, addend: 0x0, symName: __ZNSt3__16vectorINS_12basic_stringIcNS_11char_traitsIcEENS_9allocatorIcEEEENS4_IS6_EEE22__construct_one_at_endB7v160006IJRKS6_EEEvDpOT_, symObjAddr: 0x43F4, symBinAddr: 0x100004FE8, symSize: 0x98 }
  - { offsetInCU: 0x16939, offset: 0x16939, size: 0x8, addend: 0x0, symName: __ZNSt3__16vectorINS_12basic_stringIcNS_11char_traitsIcEENS_9allocatorIcEEEENS4_IS6_EEE21__push_back_slow_pathIRKS6_EEvOT_, symObjAddr: 0x448C, symBinAddr: 0x100005080, symSize: 0xE0 }
  - { offsetInCU: 0x16997, offset: 0x16997, size: 0x8, addend: 0x0, symName: __ZNSt3__117__compressed_pairIPNS_12basic_stringIcNS_11char_traitsIcEENS_9allocatorIcEEEENS4_IS6_EEE5firstB7v160006Ev, symObjAddr: 0x456C, symBinAddr: 0x100005160, symSize: 0x24 }
  - { offsetInCU: 0x169BD, offset: 0x169BD, size: 0x8, addend: 0x0, symName: __ZNSt3__122__compressed_pair_elemIPNS_12basic_stringIcNS_11char_traitsIcEENS_9allocatorIcEEEELi0ELb0EE5__getB7v160006Ev, symObjAddr: 0x4590, symBinAddr: 0x100005184, symSize: 0x14 }
  - { offsetInCU: 0x169FC, offset: 0x169FC, size: 0x8, addend: 0x0, symName: __ZNSt3__16vectorINS_12basic_stringIcNS_11char_traitsIcEENS_9allocatorIcEEEENS4_IS6_EEE21_ConstructTransactionC1B7v160006ERS8_m, symObjAddr: 0x45A4, symBinAddr: 0x100005198, symSize: 0x3C }
  - { offsetInCU: 0x16A44, offset: 0x16A44, size: 0x8, addend: 0x0, symName: __ZNSt3__116allocator_traitsINS_9allocatorINS_12basic_stringIcNS_11char_traitsIcEENS1_IcEEEEEEE9constructB7v160006IS6_JRKS6_EvEEvRS7_PT_DpOT0_, symObjAddr: 0x45E0, symBinAddr: 0x1000051D4, symSize: 0x34 }
  - { offsetInCU: 0x16A9B, offset: 0x16A9B, size: 0x8, addend: 0x0, symName: __ZNSt3__16vectorINS_12basic_stringIcNS_11char_traitsIcEENS_9allocatorIcEEEENS4_IS6_EEE21_ConstructTransactionD1B7v160006Ev, symObjAddr: 0x4614, symBinAddr: 0x100005208, symSize: 0x2C }
  - { offsetInCU: 0x16AC5, offset: 0x16AC5, size: 0x8, addend: 0x0, symName: __ZNSt3__16vectorINS_12basic_stringIcNS_11char_traitsIcEENS_9allocatorIcEEEENS4_IS6_EEE21_ConstructTransactionC2B7v160006ERS8_m, symObjAddr: 0x4640, symBinAddr: 0x100005234, symSize: 0x4C }
  - { offsetInCU: 0x16B0D, offset: 0x16B0D, size: 0x8, addend: 0x0, symName: __ZNSt3__19allocatorINS_12basic_stringIcNS_11char_traitsIcEENS0_IcEEEEE9constructB7v160006IS5_JRKS5_EEEvPT_DpOT0_, symObjAddr: 0x468C, symBinAddr: 0x100005280, symSize: 0x30 }
  - { offsetInCU: 0x16B63, offset: 0x16B63, size: 0x8, addend: 0x0, symName: __ZNSt3__16vectorINS_12basic_stringIcNS_11char_traitsIcEENS_9allocatorIcEEEENS4_IS6_EEE21_ConstructTransactionD2B7v160006Ev, symObjAddr: 0x46BC, symBinAddr: 0x1000052B0, symSize: 0x20 }
  - { offsetInCU: 0x16B8D, offset: 0x16B8D, size: 0x8, addend: 0x0, symName: __ZNKSt3__16vectorINS_12basic_stringIcNS_11char_traitsIcEENS_9allocatorIcEEEENS4_IS6_EEE11__recommendB7v160006Em, symObjAddr: 0x46DC, symBinAddr: 0x1000052D0, symSize: 0xB4 }
  - { offsetInCU: 0x16BE2, offset: 0x16BE2, size: 0x8, addend: 0x0, symName: __ZNSt3__114__split_bufferINS_12basic_stringIcNS_11char_traitsIcEENS_9allocatorIcEEEERNS4_IS6_EEEC1EmmS8_, symObjAddr: 0x4790, symBinAddr: 0x100005384, symSize: 0x44 }
  - { offsetInCU: 0x16C38, offset: 0x16C38, size: 0x8, addend: 0x0, symName: __ZNSt3__114__split_bufferINS_12basic_stringIcNS_11char_traitsIcEENS_9allocatorIcEEEERNS4_IS6_EEED1Ev, symObjAddr: 0x48EC, symBinAddr: 0x1000054E0, symSize: 0x2C }
  - { offsetInCU: 0x16C64, offset: 0x16C64, size: 0x8, addend: 0x0, symName: __ZNKSt3__16vectorINS_12basic_stringIcNS_11char_traitsIcEENS_9allocatorIcEEEENS4_IS6_EEE8max_sizeEv, symObjAddr: 0x4918, symBinAddr: 0x10000550C, symSize: 0x74 }
  - { offsetInCU: 0x16C8C, offset: 0x16C8C, size: 0x8, addend: 0x0, symName: __ZNKSt3__16vectorINS_12basic_stringIcNS_11char_traitsIcEENS_9allocatorIcEEEENS4_IS6_EEE20__throw_length_errorB7v160006Ev, symObjAddr: 0x498C, symBinAddr: 0x100005580, symSize: 0x1C }
  - { offsetInCU: 0x16CBC, offset: 0x16CBC, size: 0x8, addend: 0x0, symName: __ZNSt3__116allocator_traitsINS_9allocatorINS_12basic_stringIcNS_11char_traitsIcEENS1_IcEEEEEEE8max_sizeB7v160006IS7_vEEmRKS7_, symObjAddr: 0x4A00, symBinAddr: 0x1000055F4, symSize: 0x24 }
  - { offsetInCU: 0x16CEA, offset: 0x16CEA, size: 0x8, addend: 0x0, symName: __ZNKSt3__16vectorINS_12basic_stringIcNS_11char_traitsIcEENS_9allocatorIcEEEENS4_IS6_EEE7__allocB7v160006Ev, symObjAddr: 0x4A24, symBinAddr: 0x100005618, symSize: 0x28 }
  - { offsetInCU: 0x16D10, offset: 0x16D10, size: 0x8, addend: 0x0, symName: __ZNSt3__114numeric_limitsIlE3maxB7v160006Ev, symObjAddr: 0x4A4C, symBinAddr: 0x100005640, symSize: 0x14 }
  - { offsetInCU: 0x16D2E, offset: 0x16D2E, size: 0x8, addend: 0x0, symName: __ZNKSt3__16__lessImmEclB7v160006ERKmS3_, symObjAddr: 0x4AB4, symBinAddr: 0x1000056A8, symSize: 0x34 }
  - { offsetInCU: 0x16D70, offset: 0x16D70, size: 0x8, addend: 0x0, symName: __ZNKSt3__19allocatorINS_12basic_stringIcNS_11char_traitsIcEENS0_IcEEEEE8max_sizeB7v160006Ev, symObjAddr: 0x4AE8, symBinAddr: 0x1000056DC, symSize: 0x18 }
  - { offsetInCU: 0x16D96, offset: 0x16D96, size: 0x8, addend: 0x0, symName: __ZNKSt3__117__compressed_pairIPNS_12basic_stringIcNS_11char_traitsIcEENS_9allocatorIcEEEENS4_IS6_EEE6secondB7v160006Ev, symObjAddr: 0x4B00, symBinAddr: 0x1000056F4, symSize: 0x24 }
  - { offsetInCU: 0x16DBC, offset: 0x16DBC, size: 0x8, addend: 0x0, symName: __ZNKSt3__122__compressed_pair_elemINS_9allocatorINS_12basic_stringIcNS_11char_traitsIcEENS1_IcEEEEEELi1ELb1EE5__getB7v160006Ev, symObjAddr: 0x4B24, symBinAddr: 0x100005718, symSize: 0x14 }
  - { offsetInCU: 0x16DE2, offset: 0x16DE2, size: 0x8, addend: 0x0, symName: __ZNSt3__123__libcpp_numeric_limitsIlLb1EE3maxB7v160006Ev, symObjAddr: 0x4B38, symBinAddr: 0x10000572C, symSize: 0x8 }
  - { offsetInCU: 0x16DF6, offset: 0x16DF6, size: 0x8, addend: 0x0, symName: __ZNSt12length_errorC1B7v160006EPKc, symObjAddr: 0x4BA4, symBinAddr: 0x100005798, symSize: 0x34 }
  - { offsetInCU: 0x16E2E, offset: 0x16E2E, size: 0x8, addend: 0x0, symName: __ZNSt12length_errorC2B7v160006EPKc, symObjAddr: 0x4BD8, symBinAddr: 0x1000057CC, symSize: 0x4C }
  - { offsetInCU: 0x16E66, offset: 0x16E66, size: 0x8, addend: 0x0, symName: __ZNSt3__114__split_bufferINS_12basic_stringIcNS_11char_traitsIcEENS_9allocatorIcEEEERNS4_IS6_EEEC2EmmS8_, symObjAddr: 0x4C78, symBinAddr: 0x10000586C, symSize: 0xE0 }
  - { offsetInCU: 0x16ED9, offset: 0x16ED9, size: 0x8, addend: 0x0, symName: __ZNSt3__117__compressed_pairIPNS_12basic_stringIcNS_11char_traitsIcEENS_9allocatorIcEEEERNS4_IS6_EEEC1B7v160006IDnS9_EEOT_OT0_, symObjAddr: 0x4D58, symBinAddr: 0x10000594C, symSize: 0x3C }
  - { offsetInCU: 0x16F31, offset: 0x16F31, size: 0x8, addend: 0x0, symName: __ZNSt3__114__split_bufferINS_12basic_stringIcNS_11char_traitsIcEENS_9allocatorIcEEEERNS4_IS6_EEE7__allocB7v160006Ev, symObjAddr: 0x4DD4, symBinAddr: 0x1000059C8, symSize: 0x28 }
  - { offsetInCU: 0x16F57, offset: 0x16F57, size: 0x8, addend: 0x0, symName: __ZNSt3__114__split_bufferINS_12basic_stringIcNS_11char_traitsIcEENS_9allocatorIcEEEERNS4_IS6_EEE9__end_capB7v160006Ev, symObjAddr: 0x4DFC, symBinAddr: 0x1000059F0, symSize: 0x28 }
  - { offsetInCU: 0x16F7D, offset: 0x16F7D, size: 0x8, addend: 0x0, symName: __ZNSt3__117__compressed_pairIPNS_12basic_stringIcNS_11char_traitsIcEENS_9allocatorIcEEEERNS4_IS6_EEEC2B7v160006IDnS9_EEOT_OT0_, symObjAddr: 0x4E24, symBinAddr: 0x100005A18, symSize: 0x48 }
  - { offsetInCU: 0x16FD5, offset: 0x16FD5, size: 0x8, addend: 0x0, symName: __ZNSt3__122__compressed_pair_elemIRNS_9allocatorINS_12basic_stringIcNS_11char_traitsIcEENS1_IcEEEEEELi1ELb0EEC2B7v160006IS8_vEEOT_, symObjAddr: 0x4E6C, symBinAddr: 0x100005A60, symSize: 0x20 }
  - { offsetInCU: 0x17017, offset: 0x17017, size: 0x8, addend: 0x0, symName: __ZNSt3__19allocatorINS_12basic_stringIcNS_11char_traitsIcEENS0_IcEEEEE8allocateB7v160006Em, symObjAddr: 0x4E8C, symBinAddr: 0x100005A80, symSize: 0x8C }
  - { offsetInCU: 0x1704B, offset: 0x1704B, size: 0x8, addend: 0x0, symName: __ZNSt3__117__compressed_pairIPNS_12basic_stringIcNS_11char_traitsIcEENS_9allocatorIcEEEERNS4_IS6_EEE6secondB7v160006Ev, symObjAddr: 0x4F18, symBinAddr: 0x100005B0C, symSize: 0x28 }
  - { offsetInCU: 0x17071, offset: 0x17071, size: 0x8, addend: 0x0, symName: __ZNSt3__122__compressed_pair_elemIRNS_9allocatorINS_12basic_stringIcNS_11char_traitsIcEENS1_IcEEEEEELi1ELb0EE5__getB7v160006Ev, symObjAddr: 0x4F40, symBinAddr: 0x100005B34, symSize: 0x18 }
  - { offsetInCU: 0x17097, offset: 0x17097, size: 0x8, addend: 0x0, symName: __ZNSt3__117__compressed_pairIPNS_12basic_stringIcNS_11char_traitsIcEENS_9allocatorIcEEEERNS4_IS6_EEE5firstB7v160006Ev, symObjAddr: 0x4F58, symBinAddr: 0x100005B4C, symSize: 0x24 }
  - { offsetInCU: 0x170BD, offset: 0x170BD, size: 0x8, addend: 0x0, symName: __ZNSt3__116reverse_iteratorIPNS_12basic_stringIcNS_11char_traitsIcEENS_9allocatorIcEEEEEC1B7v160006ES7_, symObjAddr: 0x50B0, symBinAddr: 0x100005CA4, symSize: 0x34 }
  - { offsetInCU: 0x170F5, offset: 0x170F5, size: 0x8, addend: 0x0, symName: __ZNKSt3__116reverse_iteratorIPNS_12basic_stringIcNS_11char_traitsIcEENS_9allocatorIcEEEEE4baseB7v160006Ev, symObjAddr: 0x50E4, symBinAddr: 0x100005CD8, symSize: 0x18 }
  - { offsetInCU: 0x1711B, offset: 0x1711B, size: 0x8, addend: 0x0, symName: __ZNKSt3__16vectorINS_12basic_stringIcNS_11char_traitsIcEENS_9allocatorIcEEEENS4_IS6_EEE14__annotate_newB7v160006Em, symObjAddr: 0x5138, symBinAddr: 0x100005D2C, symSize: 0xC8 }
  - { offsetInCU: 0x17150, offset: 0x17150, size: 0x8, addend: 0x0, symName: __ZNSt3__129_AllocatorDestroyRangeReverseINS_9allocatorINS_12basic_stringIcNS_11char_traitsIcEENS1_IcEEEEEENS_16reverse_iteratorIPS6_EEEC1B7v160006ERS7_RSA_SD_, symObjAddr: 0x525C, symBinAddr: 0x100005E50, symSize: 0x44 }
  - { offsetInCU: 0x171A7, offset: 0x171A7, size: 0x8, addend: 0x0, symName: __ZNKSt3__116reverse_iteratorIPNS_12basic_stringIcNS_11char_traitsIcEENS_9allocatorIcEEEEEdeB7v160006Ev, symObjAddr: 0x530C, symBinAddr: 0x100005F00, symSize: 0x28 }
  - { offsetInCU: 0x171DB, offset: 0x171DB, size: 0x8, addend: 0x0, symName: __ZNSt3__116reverse_iteratorIPNS_12basic_stringIcNS_11char_traitsIcEENS_9allocatorIcEEEEEppB7v160006Ev, symObjAddr: 0x5334, symBinAddr: 0x100005F28, symSize: 0x20 }
  - { offsetInCU: 0x17201, offset: 0x17201, size: 0x8, addend: 0x0, symName: __ZNSt3__128__exception_guard_exceptionsINS_29_AllocatorDestroyRangeReverseINS_9allocatorINS_12basic_stringIcNS_11char_traitsIcEENS2_IcEEEEEENS_16reverse_iteratorIPS7_EEEEE10__completeB7v160006Ev, symObjAddr: 0x5354, symBinAddr: 0x100005F48, symSize: 0x1C }
  - { offsetInCU: 0x17227, offset: 0x17227, size: 0x8, addend: 0x0, symName: __ZNSt3__128__exception_guard_exceptionsINS_29_AllocatorDestroyRangeReverseINS_9allocatorINS_12basic_stringIcNS_11char_traitsIcEENS2_IcEEEEEENS_16reverse_iteratorIPS7_EEEEED1B7v160006Ev, symObjAddr: 0x5370, symBinAddr: 0x100005F64, symSize: 0x2C }
  - { offsetInCU: 0x17251, offset: 0x17251, size: 0x8, addend: 0x0, symName: __ZNSt3__128__exception_guard_exceptionsINS_29_AllocatorDestroyRangeReverseINS_9allocatorINS_12basic_stringIcNS_11char_traitsIcEENS2_IcEEEEEENS_16reverse_iteratorIPS7_EEEEEC1B7v160006ESC_, symObjAddr: 0x539C, symBinAddr: 0x100005F90, symSize: 0x34 }
  - { offsetInCU: 0x1728A, offset: 0x1728A, size: 0x8, addend: 0x0, symName: __ZNSt3__128__exception_guard_exceptionsINS_29_AllocatorDestroyRangeReverseINS_9allocatorINS_12basic_stringIcNS_11char_traitsIcEENS2_IcEEEEEENS_16reverse_iteratorIPS7_EEEEEC2B7v160006ESC_, symObjAddr: 0x53D0, symBinAddr: 0x100005FC4, symSize: 0x30 }
  - { offsetInCU: 0x172C3, offset: 0x172C3, size: 0x8, addend: 0x0, symName: __ZNSt3__129_AllocatorDestroyRangeReverseINS_9allocatorINS_12basic_stringIcNS_11char_traitsIcEENS1_IcEEEEEENS_16reverse_iteratorIPS6_EEEC2B7v160006ERS7_RSA_SD_, symObjAddr: 0x5400, symBinAddr: 0x100005FF4, symSize: 0x38 }
  - { offsetInCU: 0x1731F, offset: 0x1731F, size: 0x8, addend: 0x0, symName: __ZNSt3__119__to_address_helperINS_16reverse_iteratorIPNS_12basic_stringIcNS_11char_traitsIcEENS_9allocatorIcEEEEEEvE6__callB7v160006ERKS9_, symObjAddr: 0x5438, symBinAddr: 0x10000602C, symSize: 0x4C }
  - { offsetInCU: 0x17342, offset: 0x17342, size: 0x8, addend: 0x0, symName: __ZNKSt3__116reverse_iteratorIPNS_12basic_stringIcNS_11char_traitsIcEENS_9allocatorIcEEEEEptB7v160006Ev, symObjAddr: 0x5484, symBinAddr: 0x100006078, symSize: 0x24 }
  - { offsetInCU: 0x17368, offset: 0x17368, size: 0x8, addend: 0x0, symName: __ZNSt3__128__exception_guard_exceptionsINS_29_AllocatorDestroyRangeReverseINS_9allocatorINS_12basic_stringIcNS_11char_traitsIcEENS2_IcEEEEEENS_16reverse_iteratorIPS7_EEEEED2B7v160006Ev, symObjAddr: 0x54A8, symBinAddr: 0x10000609C, symSize: 0x48 }
  - { offsetInCU: 0x17392, offset: 0x17392, size: 0x8, addend: 0x0, symName: __ZNKSt3__129_AllocatorDestroyRangeReverseINS_9allocatorINS_12basic_stringIcNS_11char_traitsIcEENS1_IcEEEEEENS_16reverse_iteratorIPS6_EEEclB7v160006Ev, symObjAddr: 0x54F0, symBinAddr: 0x1000060E4, symSize: 0xB4 }
  - { offsetInCU: 0x173B9, offset: 0x173B9, size: 0x8, addend: 0x0, symName: __ZNSt3__116reverse_iteratorINS0_IPNS_12basic_stringIcNS_11char_traitsIcEENS_9allocatorIcEEEEEEEC1B7v160006ES8_, symObjAddr: 0x5614, symBinAddr: 0x100006208, symSize: 0x3C }
  - { offsetInCU: 0x173F1, offset: 0x173F1, size: 0x8, addend: 0x0, symName: __ZNSt3__116reverse_iteratorINS0_IPNS_12basic_stringIcNS_11char_traitsIcEENS_9allocatorIcEEEEEEEppB7v160006Ev, symObjAddr: 0x56D4, symBinAddr: 0x1000062C8, symSize: 0x30 }
  - { offsetInCU: 0x17417, offset: 0x17417, size: 0x8, addend: 0x0, symName: __ZNKSt3__116reverse_iteratorINS0_IPNS_12basic_stringIcNS_11char_traitsIcEENS_9allocatorIcEEEEEEE4baseB7v160006Ev, symObjAddr: 0x5704, symBinAddr: 0x1000062F8, symSize: 0x24 }
  - { offsetInCU: 0x17442, offset: 0x17442, size: 0x8, addend: 0x0, symName: __ZNSt3__119__to_address_helperINS_16reverse_iteratorINS1_IPNS_12basic_stringIcNS_11char_traitsIcEENS_9allocatorIcEEEEEEEEvE6__callB7v160006ERKSA_, symObjAddr: 0x5728, symBinAddr: 0x10000631C, symSize: 0x4C }
  - { offsetInCU: 0x17465, offset: 0x17465, size: 0x8, addend: 0x0, symName: __ZNKSt3__116reverse_iteratorINS0_IPNS_12basic_stringIcNS_11char_traitsIcEENS_9allocatorIcEEEEEEEptB7v160006Ev, symObjAddr: 0x5774, symBinAddr: 0x100006368, symSize: 0x24 }
  - { offsetInCU: 0x1748B, offset: 0x1748B, size: 0x8, addend: 0x0, symName: __ZNKSt3__116reverse_iteratorINS0_IPNS_12basic_stringIcNS_11char_traitsIcEENS_9allocatorIcEEEEEEEdeB7v160006Ev, symObjAddr: 0x5798, symBinAddr: 0x10000638C, symSize: 0x34 }
  - { offsetInCU: 0x174BF, offset: 0x174BF, size: 0x8, addend: 0x0, symName: __ZNSt3__116reverse_iteratorIPNS_12basic_stringIcNS_11char_traitsIcEENS_9allocatorIcEEEEEmmB7v160006Ev, symObjAddr: 0x57CC, symBinAddr: 0x1000063C0, symSize: 0x20 }
  - { offsetInCU: 0x174E5, offset: 0x174E5, size: 0x8, addend: 0x0, symName: __ZNSt3__116reverse_iteratorINS0_IPNS_12basic_stringIcNS_11char_traitsIcEENS_9allocatorIcEEEEEEEC2B7v160006ES8_, symObjAddr: 0x57EC, symBinAddr: 0x1000063E0, symSize: 0x2C }
  - { offsetInCU: 0x1751D, offset: 0x1751D, size: 0x8, addend: 0x0, symName: __ZNSt3__116reverse_iteratorIPNS_12basic_stringIcNS_11char_traitsIcEENS_9allocatorIcEEEEEC2B7v160006ES7_, symObjAddr: 0x5818, symBinAddr: 0x10000640C, symSize: 0x28 }
  - { offsetInCU: 0x17555, offset: 0x17555, size: 0x8, addend: 0x0, symName: __ZNSt3__114__split_bufferINS_12basic_stringIcNS_11char_traitsIcEENS_9allocatorIcEEEERNS4_IS6_EEED2Ev, symObjAddr: 0x5840, symBinAddr: 0x100006434, symSize: 0x80 }
  - { offsetInCU: 0x17581, offset: 0x17581, size: 0x8, addend: 0x0, symName: __ZNSt3__114__split_bufferINS_12basic_stringIcNS_11char_traitsIcEENS_9allocatorIcEEEERNS4_IS6_EEE5clearB7v160006Ev, symObjAddr: 0x58C0, symBinAddr: 0x1000064B4, symSize: 0x28 }
  - { offsetInCU: 0x175A7, offset: 0x175A7, size: 0x8, addend: 0x0, symName: __ZNKSt3__114__split_bufferINS_12basic_stringIcNS_11char_traitsIcEENS_9allocatorIcEEEERNS4_IS6_EEE8capacityB7v160006Ev, symObjAddr: 0x58E8, symBinAddr: 0x1000064DC, symSize: 0x40 }
  - { offsetInCU: 0x175CD, offset: 0x175CD, size: 0x8, addend: 0x0, symName: __ZNSt3__114__split_bufferINS_12basic_stringIcNS_11char_traitsIcEENS_9allocatorIcEEEERNS4_IS6_EEE17__destruct_at_endB7v160006EPS6_, symObjAddr: 0x5928, symBinAddr: 0x10000651C, symSize: 0x2C }
  - { offsetInCU: 0x17601, offset: 0x17601, size: 0x8, addend: 0x0, symName: __ZNSt3__114__split_bufferINS_12basic_stringIcNS_11char_traitsIcEENS_9allocatorIcEEEERNS4_IS6_EEE17__destruct_at_endB7v160006EPS6_NS_17integral_constantIbLb0EEE, symObjAddr: 0x5954, symBinAddr: 0x100006548, symSize: 0x94 }
  - { offsetInCU: 0x17642, offset: 0x17642, size: 0x8, addend: 0x0, symName: __ZNKSt3__114__split_bufferINS_12basic_stringIcNS_11char_traitsIcEENS_9allocatorIcEEEERNS4_IS6_EEE9__end_capB7v160006Ev, symObjAddr: 0x59E8, symBinAddr: 0x1000065DC, symSize: 0x28 }
  - { offsetInCU: 0x17668, offset: 0x17668, size: 0x8, addend: 0x0, symName: __ZNKSt3__117__compressed_pairIPNS_12basic_stringIcNS_11char_traitsIcEENS_9allocatorIcEEEERNS4_IS6_EEE5firstB7v160006Ev, symObjAddr: 0x5A10, symBinAddr: 0x100006604, symSize: 0x24 }
  - { offsetInCU: 0x1768E, offset: 0x1768E, size: 0x8, addend: 0x0, symName: __ZNSt3__19allocatorIcEC1B7v160006Ev, symObjAddr: 0x5A34, symBinAddr: 0x100006628, symSize: 0x2C }
  - { offsetInCU: 0x176B8, offset: 0x176B8, size: 0x8, addend: 0x0, symName: __ZNSt3__16__treeINS_12__value_typeINS_12basic_stringIcNS_11char_traitsIcEENS_9allocatorIcEEEENS_3mapIS7_NS_6vectorIfNS5_IfEEEENS_4lessIS7_EENS5_INS_4pairIKS7_SB_EEEEEEEENS_19__map_value_compareIS7_SJ_SD_Lb1EEENS5_ISJ_EEE12__find_equalIS7_EERPNS_16__tree_node_baseIPvEERPNS_15__tree_end_nodeISS_EERKT_, symObjAddr: 0x5A60, symBinAddr: 0x100006654, symSize: 0x184 }
  - { offsetInCU: 0x17725, offset: 0x17725, size: 0x8, addend: 0x0, symName: __ZNSt3__13mapINS_12basic_stringIcNS_11char_traitsIcEENS_9allocatorIcEEEENS0_IS6_NS_6vectorIfNS4_IfEEEENS_4lessIS6_EENS4_INS_4pairIKS6_S9_EEEEEESB_NS4_INSC_ISD_SG_EEEEE25__construct_node_with_keyERSD_, symObjAddr: 0x5BE4, symBinAddr: 0x1000067D8, symSize: 0x144 }
  - { offsetInCU: 0x1777B, offset: 0x1777B, size: 0x8, addend: 0x0, symName: __ZNSt3__16__treeINS_12__value_typeINS_12basic_stringIcNS_11char_traitsIcEENS_9allocatorIcEEEENS_3mapIS7_NS_6vectorIfNS5_IfEEEENS_4lessIS7_EENS5_INS_4pairIKS7_SB_EEEEEEEENS_19__map_value_compareIS7_SJ_SD_Lb1EEENS5_ISJ_EEE16__insert_node_atEPNS_15__tree_end_nodeIPNS_16__tree_node_baseIPvEEEERSS_SS_, symObjAddr: 0x5D28, symBinAddr: 0x10000691C, symSize: 0xCC }
  - { offsetInCU: 0x177D0, offset: 0x177D0, size: 0x8, addend: 0x0, symName: __ZNKSt3__110unique_ptrINS_11__tree_nodeINS_12__value_typeINS_12basic_stringIcNS_11char_traitsIcEENS_9allocatorIcEEEENS_3mapIS8_NS_6vectorIfNS6_IfEEEENS_4lessIS8_EENS6_INS_4pairIKS8_SC_EEEEEEEEPvEENS_21__map_node_destructorINS6_ISM_EEEEE3getB7v160006Ev, symObjAddr: 0x5DF4, symBinAddr: 0x1000069E8, symSize: 0x28 }
  - { offsetInCU: 0x177F6, offset: 0x177F6, size: 0x8, addend: 0x0, symName: __ZNSt3__110unique_ptrINS_11__tree_nodeINS_12__value_typeINS_12basic_stringIcNS_11char_traitsIcEENS_9allocatorIcEEEENS_3mapIS8_NS_6vectorIfNS6_IfEEEENS_4lessIS8_EENS6_INS_4pairIKS8_SC_EEEEEEEEPvEENS_21__map_node_destructorINS6_ISM_EEEEE7releaseB7v160006Ev, symObjAddr: 0x5E1C, symBinAddr: 0x100006A10, symSize: 0x44 }
  - { offsetInCU: 0x1782B, offset: 0x1782B, size: 0x8, addend: 0x0, symName: __ZNSt3__110unique_ptrINS_11__tree_nodeINS_12__value_typeINS_12basic_stringIcNS_11char_traitsIcEENS_9allocatorIcEEEENS_3mapIS8_NS_6vectorIfNS6_IfEEEENS_4lessIS8_EENS6_INS_4pairIKS8_SC_EEEEEEEEPvEENS_21__map_node_destructorINS6_ISM_EEEEED1B7v160006Ev, symObjAddr: 0x5E60, symBinAddr: 0x100006A54, symSize: 0x2C }
  - { offsetInCU: 0x17855, offset: 0x17855, size: 0x8, addend: 0x0, symName: __ZNKSt3__16__treeINS_12__value_typeINS_12basic_stringIcNS_11char_traitsIcEENS_9allocatorIcEEEENS_3mapIS7_NS_6vectorIfNS5_IfEEEENS_4lessIS7_EENS5_INS_4pairIKS7_SB_EEEEEEEENS_19__map_value_compareIS7_SJ_SD_Lb1EEENS5_ISJ_EEE10__root_ptrEv, symObjAddr: 0x5E8C, symBinAddr: 0x100006A80, symSize: 0x24 }
  - { offsetInCU: 0x1787B, offset: 0x1787B, size: 0x8, addend: 0x0, symName: __ZNSt3__16__treeINS_12__value_typeINS_12basic_stringIcNS_11char_traitsIcEENS_9allocatorIcEEEENS_3mapIS7_NS_6vectorIfNS5_IfEEEENS_4lessIS7_EENS5_INS_4pairIKS7_SB_EEEEEEEENS_19__map_value_compareIS7_SJ_SD_Lb1EEENS5_ISJ_EEE10value_compB7v160006Ev, symObjAddr: 0x5EB0, symBinAddr: 0x100006AA4, symSize: 0x28 }
  - { offsetInCU: 0x178A1, offset: 0x178A1, size: 0x8, addend: 0x0, symName: __ZNKSt3__119__map_value_compareINS_12basic_stringIcNS_11char_traitsIcEENS_9allocatorIcEEEENS_12__value_typeIS6_NS_3mapIS6_NS_6vectorIfNS4_IfEEEENS_4lessIS6_EENS4_INS_4pairIKS6_SB_EEEEEEEESD_Lb1EEclB7v160006ERSF_RKSJ_, symObjAddr: 0x5ED8, symBinAddr: 0x100006ACC, symSize: 0x50 }
  - { offsetInCU: 0x178E5, offset: 0x178E5, size: 0x8, addend: 0x0, symName: __ZNKSt3__119__map_value_compareINS_12basic_stringIcNS_11char_traitsIcEENS_9allocatorIcEEEENS_12__value_typeIS6_NS_3mapIS6_NS_6vectorIfNS4_IfEEEENS_4lessIS6_EENS4_INS_4pairIKS6_SB_EEEEEEEESD_Lb1EEclB7v160006ERKSJ_RSF_, symObjAddr: 0x5F28, symBinAddr: 0x100006B1C, symSize: 0x48 }
  - { offsetInCU: 0x17929, offset: 0x17929, size: 0x8, addend: 0x0, symName: __ZNSt3__117__compressed_pairImNS_19__map_value_compareINS_12basic_stringIcNS_11char_traitsIcEENS_9allocatorIcEEEENS_12__value_typeIS7_NS_3mapIS7_NS_6vectorIfNS5_IfEEEENS_4lessIS7_EENS5_INS_4pairIKS7_SC_EEEEEEEESE_Lb1EEEE6secondB7v160006Ev, symObjAddr: 0x5F70, symBinAddr: 0x100006B64, symSize: 0x24 }
  - { offsetInCU: 0x1794F, offset: 0x1794F, size: 0x8, addend: 0x0, symName: __ZNSt3__122__compressed_pair_elemINS_19__map_value_compareINS_12basic_stringIcNS_11char_traitsIcEENS_9allocatorIcEEEENS_12__value_typeIS7_NS_3mapIS7_NS_6vectorIfNS5_IfEEEENS_4lessIS7_EENS5_INS_4pairIKS7_SC_EEEEEEEESE_Lb1EEELi1ELb1EE5__getB7v160006Ev, symObjAddr: 0x5F94, symBinAddr: 0x100006B88, symSize: 0x14 }
  - { offsetInCU: 0x17975, offset: 0x17975, size: 0x8, addend: 0x0, symName: __ZNKSt3__14lessINS_12basic_stringIcNS_11char_traitsIcEENS_9allocatorIcEEEEEclB7v160006ERKS6_S9_, symObjAddr: 0x5FA8, symBinAddr: 0x100006B9C, symSize: 0x34 }
  - { offsetInCU: 0x179B9, offset: 0x179B9, size: 0x8, addend: 0x0, symName: __ZNKSt3__112__value_typeINS_12basic_stringIcNS_11char_traitsIcEENS_9allocatorIcEEEENS_3mapIS6_NS_6vectorIfNS4_IfEEEENS_4lessIS6_EENS4_INS_4pairIKS6_SA_EEEEEEE11__get_valueB7v160006Ev, symObjAddr: 0x5FDC, symBinAddr: 0x100006BD0, symSize: 0x14 }
  - { offsetInCU: 0x179DF, offset: 0x179DF, size: 0x8, addend: 0x0, symName: __ZNKSt3__112basic_stringIcNS_11char_traitsIcEENS_9allocatorIcEEE7compareB7v160006ERKS5_, symObjAddr: 0x6028, symBinAddr: 0x100006C1C, symSize: 0x4C }
  - { offsetInCU: 0x17A16, offset: 0x17A16, size: 0x8, addend: 0x0, symName: __ZNKSt3__112basic_stringIcNS_11char_traitsIcEENS_9allocatorIcEEE7compareINS_17basic_string_viewIcS2_EEEENS_9enable_ifIXsr33__can_be_converted_to_string_viewIcS2_T_EE5valueEiE4typeERKSA_, symObjAddr: 0x6074, symBinAddr: 0x100006C68, symSize: 0x140 }
  - { offsetInCU: 0x17A93, offset: 0x17A93, size: 0x8, addend: 0x0, symName: __ZNKSt3__112basic_stringIcNS_11char_traitsIcEENS_9allocatorIcEEEcvNS_17basic_string_viewIcS2_EEB7v160006Ev, symObjAddr: 0x61B4, symBinAddr: 0x100006DA8, symSize: 0x50 }
  - { offsetInCU: 0x17AB9, offset: 0x17AB9, size: 0x8, addend: 0x0, symName: __ZNKSt3__117basic_string_viewIcNS_11char_traitsIcEEE4sizeB7v160006Ev, symObjAddr: 0x6204, symBinAddr: 0x100006DF8, symSize: 0x18 }
  - { offsetInCU: 0x17ADF, offset: 0x17ADF, size: 0x8, addend: 0x0, symName: __ZNSt3__111char_traitsIcE7compareEPKcS3_m, symObjAddr: 0x621C, symBinAddr: 0x100006E10, symSize: 0x80 }
  - { offsetInCU: 0x17B1E, offset: 0x17B1E, size: 0x8, addend: 0x0, symName: __ZNKSt3__117basic_string_viewIcNS_11char_traitsIcEEE4dataB7v160006Ev, symObjAddr: 0x629C, symBinAddr: 0x100006E90, symSize: 0x18 }
  - { offsetInCU: 0x17B44, offset: 0x17B44, size: 0x8, addend: 0x0, symName: __ZNSt3__117basic_string_viewIcNS_11char_traitsIcEEEC1B7v160006EPKcm, symObjAddr: 0x62E8, symBinAddr: 0x100006EDC, symSize: 0x3C }
  - { offsetInCU: 0x17B8C, offset: 0x17B8C, size: 0x8, addend: 0x0, symName: __ZNSt3__117basic_string_viewIcNS_11char_traitsIcEEEC2B7v160006EPKcm, symObjAddr: 0x6324, symBinAddr: 0x100006F18, symSize: 0x2C }
  - { offsetInCU: 0x17BD4, offset: 0x17BD4, size: 0x8, addend: 0x0, symName: __ZNSt3__116allocator_traitsINS_9allocatorINS_11__tree_nodeINS_12__value_typeINS_12basic_stringIcNS_11char_traitsIcEENS1_IcEEEENS_3mapIS8_NS_6vectorIfNS1_IfEEEENS_4lessIS8_EENS1_INS_4pairIKS8_SC_EEEEEEEEPvEEEEE8allocateB7v160006ERSN_m, symObjAddr: 0x6350, symBinAddr: 0x100006F44, symSize: 0x2C }
  - { offsetInCU: 0x17C07, offset: 0x17C07, size: 0x8, addend: 0x0, symName: __ZNSt3__121__map_node_destructorINS_9allocatorINS_11__tree_nodeINS_12__value_typeINS_12basic_stringIcNS_11char_traitsIcEENS1_IcEEEENS_3mapIS8_NS_6vectorIfNS1_IfEEEENS_4lessIS8_EENS1_INS_4pairIKS8_SC_EEEEEEEEPvEEEEEC1B7v160006ERSN_, symObjAddr: 0x637C, symBinAddr: 0x100006F70, symSize: 0x34 }
  - { offsetInCU: 0x17C46, offset: 0x17C46, size: 0x8, addend: 0x0, symName: __ZNSt3__110unique_ptrINS_11__tree_nodeINS_12__value_typeINS_12basic_stringIcNS_11char_traitsIcEENS_9allocatorIcEEEENS_3mapIS8_NS_6vectorIfNS6_IfEEEENS_4lessIS8_EENS6_INS_4pairIKS8_SC_EEEEEEEEPvEENS_21__map_node_destructorINS6_ISM_EEEEEC1B7v160006ILb1EvEEPSM_NS_16__dependent_typeINS_27__unique_ptr_deleter_sfinaeISP_EEXT_EE20__good_rval_ref_typeE, symObjAddr: 0x63B0, symBinAddr: 0x100006FA4, symSize: 0x3C }
  - { offsetInCU: 0x17C97, offset: 0x17C97, size: 0x8, addend: 0x0, symName: __ZNSt3__116allocator_traitsINS_9allocatorINS_11__tree_nodeINS_12__value_typeINS_12basic_stringIcNS_11char_traitsIcEENS1_IcEEEENS_3mapIS8_NS_6vectorIfNS1_IfEEEENS_4lessIS8_EENS1_INS_4pairIKS8_SC_EEEEEEEEPvEEEEE9constructB7v160006ISG_JRSG_EvEEvRSN_PT_DpOT0_, symObjAddr: 0x63EC, symBinAddr: 0x100006FE0, symSize: 0x34 }
  - { offsetInCU: 0x17CEE, offset: 0x17CEE, size: 0x8, addend: 0x0, symName: __ZNKSt3__110unique_ptrINS_11__tree_nodeINS_12__value_typeINS_12basic_stringIcNS_11char_traitsIcEENS_9allocatorIcEEEENS_3mapIS8_NS_6vectorIfNS6_IfEEEENS_4lessIS8_EENS6_INS_4pairIKS8_SC_EEEEEEEEPvEENS_21__map_node_destructorINS6_ISM_EEEEEptB7v160006Ev, symObjAddr: 0x6420, symBinAddr: 0x100007014, symSize: 0x28 }
  - { offsetInCU: 0x17D14, offset: 0x17D14, size: 0x8, addend: 0x0, symName: __ZNSt3__110unique_ptrINS_11__tree_nodeINS_12__value_typeINS_12basic_stringIcNS_11char_traitsIcEENS_9allocatorIcEEEENS_3mapIS8_NS_6vectorIfNS6_IfEEEENS_4lessIS8_EENS6_INS_4pairIKS8_SC_EEEEEEEEPvEENS_21__map_node_destructorINS6_ISM_EEEEE11get_deleterB7v160006Ev, symObjAddr: 0x6448, symBinAddr: 0x10000703C, symSize: 0x24 }
  - { offsetInCU: 0x17D3F, offset: 0x17D3F, size: 0x8, addend: 0x0, symName: __ZNSt3__116allocator_traitsINS_9allocatorINS_11__tree_nodeINS_12__value_typeINS_12basic_stringIcNS_11char_traitsIcEENS1_IcEEEENS_3mapIS8_NS_6vectorIfNS1_IfEEEENS_4lessIS8_EENS1_INS_4pairIKS8_SC_EEEEEEEEPvEEEEE9constructB7v160006ISJ_JEvEEvRSN_PT_DpOT0_, symObjAddr: 0x646C, symBinAddr: 0x100007060, symSize: 0x2C }
  - { offsetInCU: 0x17D81, offset: 0x17D81, size: 0x8, addend: 0x0, symName: __ZNSt3__19allocatorINS_11__tree_nodeINS_12__value_typeINS_12basic_stringIcNS_11char_traitsIcEENS0_IcEEEENS_3mapIS7_NS_6vectorIfNS0_IfEEEENS_4lessIS7_EENS0_INS_4pairIKS7_SB_EEEEEEEEPvEEE8allocateB7v160006Em, symObjAddr: 0x6498, symBinAddr: 0x10000708C, symSize: 0x8C }
  - { offsetInCU: 0x17DBF, offset: 0x17DBF, size: 0x8, addend: 0x0, symName: __ZNSt3__116allocator_traitsINS_9allocatorINS_11__tree_nodeINS_12__value_typeINS_12basic_stringIcNS_11char_traitsIcEENS1_IcEEEENS_3mapIS8_NS_6vectorIfNS1_IfEEEENS_4lessIS8_EENS1_INS_4pairIKS8_SC_EEEEEEEEPvEEEEE8max_sizeB7v160006ISN_vEEmRKSN_, symObjAddr: 0x6524, symBinAddr: 0x100007118, symSize: 0x24 }
  - { offsetInCU: 0x17DED, offset: 0x17DED, size: 0x8, addend: 0x0, symName: __ZNKSt3__19allocatorINS_11__tree_nodeINS_12__value_typeINS_12basic_stringIcNS_11char_traitsIcEENS0_IcEEEENS_3mapIS7_NS_6vectorIfNS0_IfEEEENS_4lessIS7_EENS0_INS_4pairIKS7_SB_EEEEEEEEPvEEE8max_sizeB7v160006Ev, symObjAddr: 0x6548, symBinAddr: 0x10000713C, symSize: 0x18 }
  - { offsetInCU: 0x17E13, offset: 0x17E13, size: 0x8, addend: 0x0, symName: __ZNSt3__121__map_node_destructorINS_9allocatorINS_11__tree_nodeINS_12__value_typeINS_12basic_stringIcNS_11char_traitsIcEENS1_IcEEEENS_3mapIS8_NS_6vectorIfNS1_IfEEEENS_4lessIS8_EENS1_INS_4pairIKS8_SC_EEEEEEEEPvEEEEEC2B7v160006ERSN_, symObjAddr: 0x6560, symBinAddr: 0x100007154, symSize: 0x28 }
  - { offsetInCU: 0x17E4C, offset: 0x17E4C, size: 0x8, addend: 0x0, symName: __ZNSt3__110unique_ptrINS_11__tree_nodeINS_12__value_typeINS_12basic_stringIcNS_11char_traitsIcEENS_9allocatorIcEEEENS_3mapIS8_NS_6vectorIfNS6_IfEEEENS_4lessIS8_EENS6_INS_4pairIKS8_SC_EEEEEEEEPvEENS_21__map_node_destructorINS6_ISM_EEEEEC2B7v160006ILb1EvEEPSM_NS_16__dependent_typeINS_27__unique_ptr_deleter_sfinaeISP_EEXT_EE20__good_rval_ref_typeE, symObjAddr: 0x6588, symBinAddr: 0x10000717C, symSize: 0x5C }
  - { offsetInCU: 0x17E9D, offset: 0x17E9D, size: 0x8, addend: 0x0, symName: __ZNSt3__117__compressed_pairIPNS_11__tree_nodeINS_12__value_typeINS_12basic_stringIcNS_11char_traitsIcEENS_9allocatorIcEEEENS_3mapIS8_NS_6vectorIfNS6_IfEEEENS_4lessIS8_EENS6_INS_4pairIKS8_SC_EEEEEEEEPvEENS_21__map_node_destructorINS6_ISM_EEEEEC1B7v160006IRSN_SQ_EEOT_OT0_, symObjAddr: 0x65E4, symBinAddr: 0x1000071D8, symSize: 0x3C }
  - { offsetInCU: 0x17EF5, offset: 0x17EF5, size: 0x8, addend: 0x0, symName: __ZNSt3__117__compressed_pairIPNS_11__tree_nodeINS_12__value_typeINS_12basic_stringIcNS_11char_traitsIcEENS_9allocatorIcEEEENS_3mapIS8_NS_6vectorIfNS6_IfEEEENS_4lessIS8_EENS6_INS_4pairIKS8_SC_EEEEEEEEPvEENS_21__map_node_destructorINS6_ISM_EEEEEC2B7v160006IRSN_SQ_EEOT_OT0_, symObjAddr: 0x6620, symBinAddr: 0x100007214, symSize: 0x48 }
  - { offsetInCU: 0x17F4D, offset: 0x17F4D, size: 0x8, addend: 0x0, symName: __ZNSt3__122__compressed_pair_elemIPNS_11__tree_nodeINS_12__value_typeINS_12basic_stringIcNS_11char_traitsIcEENS_9allocatorIcEEEENS_3mapIS8_NS_6vectorIfNS6_IfEEEENS_4lessIS8_EENS6_INS_4pairIKS8_SC_EEEEEEEEPvEELi0ELb0EEC2B7v160006IRSN_vEEOT_, symObjAddr: 0x6668, symBinAddr: 0x10000725C, symSize: 0x24 }
  - { offsetInCU: 0x17F8F, offset: 0x17F8F, size: 0x8, addend: 0x0, symName: __ZNSt3__122__compressed_pair_elemINS_21__map_node_destructorINS_9allocatorINS_11__tree_nodeINS_12__value_typeINS_12basic_stringIcNS_11char_traitsIcEENS2_IcEEEENS_3mapIS9_NS_6vectorIfNS2_IfEEEENS_4lessIS9_EENS2_INS_4pairIKS9_SD_EEEEEEEEPvEEEEEELi1ELb0EEC2B7v160006ISP_vEEOT_, symObjAddr: 0x668C, symBinAddr: 0x100007280, symSize: 0x24 }
  - { offsetInCU: 0x17FD1, offset: 0x17FD1, size: 0x8, addend: 0x0, symName: __ZNSt3__19allocatorINS_11__tree_nodeINS_12__value_typeINS_12basic_stringIcNS_11char_traitsIcEENS0_IcEEEENS_3mapIS7_NS_6vectorIfNS0_IfEEEENS_4lessIS7_EENS0_INS_4pairIKS7_SB_EEEEEEEEPvEEE9constructB7v160006ISF_JRSF_EEEvPT_DpOT0_, symObjAddr: 0x66B0, symBinAddr: 0x1000072A4, symSize: 0x30 }
  - { offsetInCU: 0x18027, offset: 0x18027, size: 0x8, addend: 0x0, symName: __ZNKSt3__117__compressed_pairIPNS_11__tree_nodeINS_12__value_typeINS_12basic_stringIcNS_11char_traitsIcEENS_9allocatorIcEEEENS_3mapIS8_NS_6vectorIfNS6_IfEEEENS_4lessIS8_EENS6_INS_4pairIKS8_SC_EEEEEEEEPvEENS_21__map_node_destructorINS6_ISM_EEEEE5firstB7v160006Ev, symObjAddr: 0x66E0, symBinAddr: 0x1000072D4, symSize: 0x24 }
  - { offsetInCU: 0x1804D, offset: 0x1804D, size: 0x8, addend: 0x0, symName: __ZNKSt3__122__compressed_pair_elemIPNS_11__tree_nodeINS_12__value_typeINS_12basic_stringIcNS_11char_traitsIcEENS_9allocatorIcEEEENS_3mapIS8_NS_6vectorIfNS6_IfEEEENS_4lessIS8_EENS6_INS_4pairIKS8_SC_EEEEEEEEPvEELi0ELb0EE5__getB7v160006Ev, symObjAddr: 0x6704, symBinAddr: 0x1000072F8, symSize: 0x14 }
  - { offsetInCU: 0x18073, offset: 0x18073, size: 0x8, addend: 0x0, symName: __ZNSt3__117__compressed_pairIPNS_11__tree_nodeINS_12__value_typeINS_12basic_stringIcNS_11char_traitsIcEENS_9allocatorIcEEEENS_3mapIS8_NS_6vectorIfNS6_IfEEEENS_4lessIS8_EENS6_INS_4pairIKS8_SC_EEEEEEEEPvEENS_21__map_node_destructorINS6_ISM_EEEEE6secondB7v160006Ev, symObjAddr: 0x6718, symBinAddr: 0x10000730C, symSize: 0x28 }
  - { offsetInCU: 0x18099, offset: 0x18099, size: 0x8, addend: 0x0, symName: __ZNSt3__122__compressed_pair_elemINS_21__map_node_destructorINS_9allocatorINS_11__tree_nodeINS_12__value_typeINS_12basic_stringIcNS_11char_traitsIcEENS2_IcEEEENS_3mapIS9_NS_6vectorIfNS2_IfEEEENS_4lessIS9_EENS2_INS_4pairIKS9_SD_EEEEEEEEPvEEEEEELi1ELb0EE5__getB7v160006Ev, symObjAddr: 0x6740, symBinAddr: 0x100007334, symSize: 0x14 }
  - { offsetInCU: 0x180BF, offset: 0x180BF, size: 0x8, addend: 0x0, symName: __ZNSt3__19allocatorINS_11__tree_nodeINS_12__value_typeINS_12basic_stringIcNS_11char_traitsIcEENS0_IcEEEENS_3mapIS7_NS_6vectorIfNS0_IfEEEENS_4lessIS7_EENS0_INS_4pairIKS7_SB_EEEEEEEEPvEEE9constructB7v160006ISI_JEEEvPT_DpOT0_, symObjAddr: 0x6754, symBinAddr: 0x100007348, symSize: 0x28 }
  - { offsetInCU: 0x18101, offset: 0x18101, size: 0x8, addend: 0x0, symName: __ZNSt3__13mapINS_12basic_stringIcNS_11char_traitsIcEENS_9allocatorIcEEEENS_6vectorIfNS4_IfEEEENS_4lessIS6_EENS4_INS_4pairIKS6_S9_EEEEEC1B7v160006Ev, symObjAddr: 0x677C, symBinAddr: 0x100007370, symSize: 0x2C }
  - { offsetInCU: 0x1812B, offset: 0x1812B, size: 0x8, addend: 0x0, symName: __ZNSt3__13mapINS_12basic_stringIcNS_11char_traitsIcEENS_9allocatorIcEEEENS_6vectorIfNS4_IfEEEENS_4lessIS6_EENS4_INS_4pairIKS6_S9_EEEEEC2B7v160006Ev, symObjAddr: 0x67A8, symBinAddr: 0x10000739C, symSize: 0x40 }
  - { offsetInCU: 0x18155, offset: 0x18155, size: 0x8, addend: 0x0, symName: __ZNSt3__119__map_value_compareINS_12basic_stringIcNS_11char_traitsIcEENS_9allocatorIcEEEENS_12__value_typeIS6_NS_6vectorIfNS4_IfEEEEEENS_4lessIS6_EELb1EEC1B7v160006ESD_, symObjAddr: 0x67E8, symBinAddr: 0x1000073DC, symSize: 0x2C }
  - { offsetInCU: 0x1818E, offset: 0x1818E, size: 0x8, addend: 0x0, symName: __ZNSt3__16__treeINS_12__value_typeINS_12basic_stringIcNS_11char_traitsIcEENS_9allocatorIcEEEENS_6vectorIfNS5_IfEEEEEENS_19__map_value_compareIS7_SB_NS_4lessIS7_EELb1EEENS5_ISB_EEEC1ERKSF_, symObjAddr: 0x6814, symBinAddr: 0x100007408, symSize: 0x34 }
  - { offsetInCU: 0x181C9, offset: 0x181C9, size: 0x8, addend: 0x0, symName: __ZNSt3__119__map_value_compareINS_12basic_stringIcNS_11char_traitsIcEENS_9allocatorIcEEEENS_12__value_typeIS6_NS_6vectorIfNS4_IfEEEEEENS_4lessIS6_EELb1EEC2B7v160006ESD_, symObjAddr: 0x6848, symBinAddr: 0x10000743C, symSize: 0x14 }
  - { offsetInCU: 0x18202, offset: 0x18202, size: 0x8, addend: 0x0, symName: __ZNSt3__16__treeINS_12__value_typeINS_12basic_stringIcNS_11char_traitsIcEENS_9allocatorIcEEEENS_6vectorIfNS5_IfEEEEEENS_19__map_value_compareIS7_SB_NS_4lessIS7_EELb1EEENS5_ISB_EEEC2ERKSF_, symObjAddr: 0x685C, symBinAddr: 0x100007450, symSize: 0x70 }
  - { offsetInCU: 0x1823D, offset: 0x1823D, size: 0x8, addend: 0x0, symName: __ZNSt3__117__compressed_pairINS_15__tree_end_nodeIPNS_16__tree_node_baseIPvEEEENS_9allocatorINS_11__tree_nodeINS_12__value_typeINS_12basic_stringIcNS_11char_traitsIcEENS7_IcEEEENS_6vectorIfNS7_IfEEEEEES3_EEEEEC1B7v160006ILb1EvEEv, symObjAddr: 0x68CC, symBinAddr: 0x1000074C0, symSize: 0x2C }
  - { offsetInCU: 0x18272, offset: 0x18272, size: 0x8, addend: 0x0, symName: __ZNSt3__117__compressed_pairImNS_19__map_value_compareINS_12basic_stringIcNS_11char_traitsIcEENS_9allocatorIcEEEENS_12__value_typeIS7_NS_6vectorIfNS5_IfEEEEEENS_4lessIS7_EELb1EEEEC1B7v160006IiRKSF_EEOT_OT0_, symObjAddr: 0x68F8, symBinAddr: 0x1000074EC, symSize: 0x3C }
  - { offsetInCU: 0x182CA, offset: 0x182CA, size: 0x8, addend: 0x0, symName: __ZNSt3__16__treeINS_12__value_typeINS_12basic_stringIcNS_11char_traitsIcEENS_9allocatorIcEEEENS_6vectorIfNS5_IfEEEEEENS_19__map_value_compareIS7_SB_NS_4lessIS7_EELb1EEENS5_ISB_EEE10__end_nodeB7v160006Ev, symObjAddr: 0x6934, symBinAddr: 0x100007528, symSize: 0x2C }
  - { offsetInCU: 0x182F0, offset: 0x182F0, size: 0x8, addend: 0x0, symName: __ZNSt3__16__treeINS_12__value_typeINS_12basic_stringIcNS_11char_traitsIcEENS_9allocatorIcEEEENS_6vectorIfNS5_IfEEEEEENS_19__map_value_compareIS7_SB_NS_4lessIS7_EELb1EEENS5_ISB_EEE12__begin_nodeB7v160006Ev, symObjAddr: 0x6960, symBinAddr: 0x100007554, symSize: 0x14 }
  - { offsetInCU: 0x18316, offset: 0x18316, size: 0x8, addend: 0x0, symName: __ZNSt3__117__compressed_pairINS_15__tree_end_nodeIPNS_16__tree_node_baseIPvEEEENS_9allocatorINS_11__tree_nodeINS_12__value_typeINS_12basic_stringIcNS_11char_traitsIcEENS7_IcEEEENS_6vectorIfNS7_IfEEEEEES3_EEEEEC2B7v160006ILb1EvEEv, symObjAddr: 0x6974, symBinAddr: 0x100007568, symSize: 0x34 }
  - { offsetInCU: 0x1834B, offset: 0x1834B, size: 0x8, addend: 0x0, symName: __ZNSt3__122__compressed_pair_elemINS_9allocatorINS_11__tree_nodeINS_12__value_typeINS_12basic_stringIcNS_11char_traitsIcEENS1_IcEEEENS_6vectorIfNS1_IfEEEEEEPvEEEELi1ELb1EEC2B7v160006ENS_16__value_init_tagE, symObjAddr: 0x69A8, symBinAddr: 0x10000759C, symSize: 0x2C }
  - { offsetInCU: 0x18380, offset: 0x18380, size: 0x8, addend: 0x0, symName: __ZNSt3__19allocatorINS_11__tree_nodeINS_12__value_typeINS_12basic_stringIcNS_11char_traitsIcEENS0_IcEEEENS_6vectorIfNS0_IfEEEEEEPvEEEC2B7v160006Ev, symObjAddr: 0x69D4, symBinAddr: 0x1000075C8, symSize: 0x2C }
  - { offsetInCU: 0x183AA, offset: 0x183AA, size: 0x8, addend: 0x0, symName: __ZNSt3__116__non_trivial_ifILb1ENS_9allocatorINS_11__tree_nodeINS_12__value_typeINS_12basic_stringIcNS_11char_traitsIcEENS1_IcEEEENS_6vectorIfNS1_IfEEEEEEPvEEEEEC2B7v160006Ev, symObjAddr: 0x6A00, symBinAddr: 0x1000075F4, symSize: 0x14 }
  - { offsetInCU: 0x183D4, offset: 0x183D4, size: 0x8, addend: 0x0, symName: __ZNSt3__117__compressed_pairImNS_19__map_value_compareINS_12basic_stringIcNS_11char_traitsIcEENS_9allocatorIcEEEENS_12__value_typeIS7_NS_6vectorIfNS5_IfEEEEEENS_4lessIS7_EELb1EEEEC2B7v160006IiRKSF_EEOT_OT0_, symObjAddr: 0x6A14, symBinAddr: 0x100007608, symSize: 0x44 }
  - { offsetInCU: 0x1842C, offset: 0x1842C, size: 0x8, addend: 0x0, symName: __ZNSt3__122__compressed_pair_elemINS_19__map_value_compareINS_12basic_stringIcNS_11char_traitsIcEENS_9allocatorIcEEEENS_12__value_typeIS7_NS_6vectorIfNS5_IfEEEEEENS_4lessIS7_EELb1EEELi1ELb1EEC2B7v160006IRKSF_vEEOT_, symObjAddr: 0x6A58, symBinAddr: 0x10000764C, symSize: 0x18 }
  - { offsetInCU: 0x1846E, offset: 0x1846E, size: 0x8, addend: 0x0, symName: __ZNSt3__117__compressed_pairINS_15__tree_end_nodeIPNS_16__tree_node_baseIPvEEEENS_9allocatorINS_11__tree_nodeINS_12__value_typeINS_12basic_stringIcNS_11char_traitsIcEENS7_IcEEEENS_6vectorIfNS7_IfEEEEEES3_EEEEE5firstB7v160006Ev, symObjAddr: 0x6A70, symBinAddr: 0x100007664, symSize: 0x24 }
  - { offsetInCU: 0x18494, offset: 0x18494, size: 0x8, addend: 0x0, symName: __ZNSt3__16__treeINS_12__value_typeINS_12basic_stringIcNS_11char_traitsIcEENS_9allocatorIcEEEENS_3mapIS7_NS_6vectorIfNS5_IfEEEENS_4lessIS7_EENS5_INS_4pairIKS7_SB_EEEEEEEENS_19__map_value_compareIS7_SJ_SD_Lb1EEENS5_ISJ_EEE4sizeB7v160006Ev, symObjAddr: 0x6DD4, symBinAddr: 0x1000079C8, symSize: 0x28 }
  - { offsetInCU: 0x184BA, offset: 0x184BA, size: 0x8, addend: 0x0, symName: __ZNKSt3__116__tree_node_baseIPvE15__parent_unsafeB7v160006Ev, symObjAddr: 0x6DFC, symBinAddr: 0x1000079F0, symSize: 0x18 }
  - { offsetInCU: 0x184E0, offset: 0x184E0, size: 0x8, addend: 0x0, symName: __ZNSt3__116__tree_node_baseIPvE12__set_parentB7v160006EPS2_, symObjAddr: 0x6FF8, symBinAddr: 0x100007BEC, symSize: 0x20 }
  - { offsetInCU: 0x18515, offset: 0x18515, size: 0x8, addend: 0x0, symName: __ZNSt3__117__compressed_pairImNS_19__map_value_compareINS_12basic_stringIcNS_11char_traitsIcEENS_9allocatorIcEEEENS_12__value_typeIS7_NS_3mapIS7_NS_6vectorIfNS5_IfEEEENS_4lessIS7_EENS5_INS_4pairIKS7_SC_EEEEEEEESE_Lb1EEEE5firstB7v160006Ev, symObjAddr: 0x7018, symBinAddr: 0x100007C0C, symSize: 0x24 }
  - { offsetInCU: 0x1853B, offset: 0x1853B, size: 0x8, addend: 0x0, symName: __ZNSt3__122__compressed_pair_elemImLi0ELb0EE5__getB7v160006Ev, symObjAddr: 0x703C, symBinAddr: 0x100007C30, symSize: 0x14 }
  - { offsetInCU: 0x18561, offset: 0x18561, size: 0x8, addend: 0x0, symName: __ZNSt3__117__compressed_pairIPNS_11__tree_nodeINS_12__value_typeINS_12basic_stringIcNS_11char_traitsIcEENS_9allocatorIcEEEENS_3mapIS8_NS_6vectorIfNS6_IfEEEENS_4lessIS8_EENS6_INS_4pairIKS8_SC_EEEEEEEEPvEENS_21__map_node_destructorINS6_ISM_EEEEE5firstB7v160006Ev, symObjAddr: 0x7050, symBinAddr: 0x100007C44, symSize: 0x24 }
  - { offsetInCU: 0x18587, offset: 0x18587, size: 0x8, addend: 0x0, symName: __ZNSt3__122__compressed_pair_elemIPNS_11__tree_nodeINS_12__value_typeINS_12basic_stringIcNS_11char_traitsIcEENS_9allocatorIcEEEENS_3mapIS8_NS_6vectorIfNS6_IfEEEENS_4lessIS8_EENS6_INS_4pairIKS8_SC_EEEEEEEEPvEELi0ELb0EE5__getB7v160006Ev, symObjAddr: 0x7074, symBinAddr: 0x100007C68, symSize: 0x14 }
  - { offsetInCU: 0x185AD, offset: 0x185AD, size: 0x8, addend: 0x0, symName: __ZNSt3__110unique_ptrINS_11__tree_nodeINS_12__value_typeINS_12basic_stringIcNS_11char_traitsIcEENS_9allocatorIcEEEENS_3mapIS8_NS_6vectorIfNS6_IfEEEENS_4lessIS8_EENS6_INS_4pairIKS8_SC_EEEEEEEEPvEENS_21__map_node_destructorINS6_ISM_EEEEED2B7v160006Ev, symObjAddr: 0x7088, symBinAddr: 0x100007C7C, symSize: 0x30 }
  - { offsetInCU: 0x185D7, offset: 0x185D7, size: 0x8, addend: 0x0, symName: __ZNSt3__110unique_ptrINS_11__tree_nodeINS_12__value_typeINS_12basic_stringIcNS_11char_traitsIcEENS_9allocatorIcEEEENS_3mapIS8_NS_6vectorIfNS6_IfEEEENS_4lessIS8_EENS6_INS_4pairIKS8_SC_EEEEEEEEPvEENS_21__map_node_destructorINS6_ISM_EEEEE5resetB7v160006EPSM_, symObjAddr: 0x70B8, symBinAddr: 0x100007CAC, symSize: 0x78 }
  - { offsetInCU: 0x1861B, offset: 0x1861B, size: 0x8, addend: 0x0, symName: __ZNSt3__121__map_node_destructorINS_9allocatorINS_11__tree_nodeINS_12__value_typeINS_12basic_stringIcNS_11char_traitsIcEENS1_IcEEEENS_3mapIS8_NS_6vectorIfNS1_IfEEEENS_4lessIS8_EENS1_INS_4pairIKS8_SC_EEEEEEEEPvEEEEEclB7v160006EPSM_, symObjAddr: 0x7130, symBinAddr: 0x100007D24, symSize: 0xE4 }
  - { offsetInCU: 0x18650, offset: 0x18650, size: 0x8, addend: 0x0, symName: __ZNSt3__116allocator_traitsINS_9allocatorINS_11__tree_nodeINS_12__value_typeINS_12basic_stringIcNS_11char_traitsIcEENS1_IcEEEENS_3mapIS8_NS_6vectorIfNS1_IfEEEENS_4lessIS8_EENS1_INS_4pairIKS8_SC_EEEEEEEEPvEEEEE7destroyB7v160006ISJ_vvEEvRSN_PT_, symObjAddr: 0x7214, symBinAddr: 0x100007E08, symSize: 0x28 }
  - { offsetInCU: 0x1868A, offset: 0x1868A, size: 0x8, addend: 0x0, symName: __ZNSt3__116allocator_traitsINS_9allocatorINS_11__tree_nodeINS_12__value_typeINS_12basic_stringIcNS_11char_traitsIcEENS1_IcEEEENS_3mapIS8_NS_6vectorIfNS1_IfEEEENS_4lessIS8_EENS1_INS_4pairIKS8_SC_EEEEEEEEPvEEEEE7destroyB7v160006ISG_vvEEvRSN_PT_, symObjAddr: 0x723C, symBinAddr: 0x100007E30, symSize: 0x28 }
  - { offsetInCU: 0x186C4, offset: 0x186C4, size: 0x8, addend: 0x0, symName: __ZNSt3__16__treeINS_12__value_typeINS_12basic_stringIcNS_11char_traitsIcEENS_9allocatorIcEEEENS_6vectorIfNS5_IfEEEEEENS_19__map_value_compareIS7_SB_NS_4lessIS7_EELb1EEENS5_ISB_EEE12__find_equalIS7_EERPNS_16__tree_node_baseIPvEERPNS_15__tree_end_nodeISM_EERKT_, symObjAddr: 0x7264, symBinAddr: 0x100007E58, symSize: 0x184 }
  - { offsetInCU: 0x18731, offset: 0x18731, size: 0x8, addend: 0x0, symName: __ZNSt3__13mapINS_12basic_stringIcNS_11char_traitsIcEENS_9allocatorIcEEEENS_6vectorIfNS4_IfEEEENS_4lessIS6_EENS4_INS_4pairIKS6_S9_EEEEE25__construct_node_with_keyERSD_, symObjAddr: 0x73E8, symBinAddr: 0x100007FDC, symSize: 0x144 }
  - { offsetInCU: 0x18787, offset: 0x18787, size: 0x8, addend: 0x0, symName: __ZNSt3__16__treeINS_12__value_typeINS_12basic_stringIcNS_11char_traitsIcEENS_9allocatorIcEEEENS_6vectorIfNS5_IfEEEEEENS_19__map_value_compareIS7_SB_NS_4lessIS7_EELb1EEENS5_ISB_EEE16__insert_node_atEPNS_15__tree_end_nodeIPNS_16__tree_node_baseIPvEEEERSM_SM_, symObjAddr: 0x752C, symBinAddr: 0x100008120, symSize: 0xCC }
  - { offsetInCU: 0x187DC, offset: 0x187DC, size: 0x8, addend: 0x0, symName: __ZNKSt3__110unique_ptrINS_11__tree_nodeINS_12__value_typeINS_12basic_stringIcNS_11char_traitsIcEENS_9allocatorIcEEEENS_6vectorIfNS6_IfEEEEEEPvEENS_21__map_node_destructorINS6_ISE_EEEEE3getB7v160006Ev, symObjAddr: 0x75F8, symBinAddr: 0x1000081EC, symSize: 0x28 }
  - { offsetInCU: 0x18802, offset: 0x18802, size: 0x8, addend: 0x0, symName: __ZNSt3__110unique_ptrINS_11__tree_nodeINS_12__value_typeINS_12basic_stringIcNS_11char_traitsIcEENS_9allocatorIcEEEENS_6vectorIfNS6_IfEEEEEEPvEENS_21__map_node_destructorINS6_ISE_EEEEE7releaseB7v160006Ev, symObjAddr: 0x7620, symBinAddr: 0x100008214, symSize: 0x44 }
  - { offsetInCU: 0x18837, offset: 0x18837, size: 0x8, addend: 0x0, symName: __ZNSt3__110unique_ptrINS_11__tree_nodeINS_12__value_typeINS_12basic_stringIcNS_11char_traitsIcEENS_9allocatorIcEEEENS_6vectorIfNS6_IfEEEEEEPvEENS_21__map_node_destructorINS6_ISE_EEEEED1B7v160006Ev, symObjAddr: 0x7664, symBinAddr: 0x100008258, symSize: 0x2C }
  - { offsetInCU: 0x18861, offset: 0x18861, size: 0x8, addend: 0x0, symName: __ZNKSt3__16__treeINS_12__value_typeINS_12basic_stringIcNS_11char_traitsIcEENS_9allocatorIcEEEENS_6vectorIfNS5_IfEEEEEENS_19__map_value_compareIS7_SB_NS_4lessIS7_EELb1EEENS5_ISB_EEE10__root_ptrEv, symObjAddr: 0x7690, symBinAddr: 0x100008284, symSize: 0x24 }
  - { offsetInCU: 0x18887, offset: 0x18887, size: 0x8, addend: 0x0, symName: __ZNSt3__16__treeINS_12__value_typeINS_12basic_stringIcNS_11char_traitsIcEENS_9allocatorIcEEEENS_6vectorIfNS5_IfEEEEEENS_19__map_value_compareIS7_SB_NS_4lessIS7_EELb1EEENS5_ISB_EEE10value_compB7v160006Ev, symObjAddr: 0x76B4, symBinAddr: 0x1000082A8, symSize: 0x28 }
  - { offsetInCU: 0x188AD, offset: 0x188AD, size: 0x8, addend: 0x0, symName: __ZNKSt3__119__map_value_compareINS_12basic_stringIcNS_11char_traitsIcEENS_9allocatorIcEEEENS_12__value_typeIS6_NS_6vectorIfNS4_IfEEEEEENS_4lessIS6_EELb1EEclB7v160006ERKS6_RKSB_, symObjAddr: 0x76DC, symBinAddr: 0x1000082D0, symSize: 0x50 }
  - { offsetInCU: 0x188F1, offset: 0x188F1, size: 0x8, addend: 0x0, symName: __ZNKSt3__119__map_value_compareINS_12basic_stringIcNS_11char_traitsIcEENS_9allocatorIcEEEENS_12__value_typeIS6_NS_6vectorIfNS4_IfEEEEEENS_4lessIS6_EELb1EEclB7v160006ERKSB_RKS6_, symObjAddr: 0x772C, symBinAddr: 0x100008320, symSize: 0x48 }
  - { offsetInCU: 0x18935, offset: 0x18935, size: 0x8, addend: 0x0, symName: __ZNSt3__117__compressed_pairImNS_19__map_value_compareINS_12basic_stringIcNS_11char_traitsIcEENS_9allocatorIcEEEENS_12__value_typeIS7_NS_6vectorIfNS5_IfEEEEEENS_4lessIS7_EELb1EEEE6secondB7v160006Ev, symObjAddr: 0x7774, symBinAddr: 0x100008368, symSize: 0x24 }
  - { offsetInCU: 0x1895B, offset: 0x1895B, size: 0x8, addend: 0x0, symName: __ZNSt3__122__compressed_pair_elemINS_19__map_value_compareINS_12basic_stringIcNS_11char_traitsIcEENS_9allocatorIcEEEENS_12__value_typeIS7_NS_6vectorIfNS5_IfEEEEEENS_4lessIS7_EELb1EEELi1ELb1EE5__getB7v160006Ev, symObjAddr: 0x7798, symBinAddr: 0x10000838C, symSize: 0x14 }
  - { offsetInCU: 0x18981, offset: 0x18981, size: 0x8, addend: 0x0, symName: __ZNKSt3__112__value_typeINS_12basic_stringIcNS_11char_traitsIcEENS_9allocatorIcEEEENS_6vectorIfNS4_IfEEEEE11__get_valueB7v160006Ev, symObjAddr: 0x77AC, symBinAddr: 0x1000083A0, symSize: 0x14 }
  - { offsetInCU: 0x189A7, offset: 0x189A7, size: 0x8, addend: 0x0, symName: __ZNSt3__116allocator_traitsINS_9allocatorINS_11__tree_nodeINS_12__value_typeINS_12basic_stringIcNS_11char_traitsIcEENS1_IcEEEENS_6vectorIfNS1_IfEEEEEEPvEEEEE8allocateB7v160006ERSF_m, symObjAddr: 0x77C0, symBinAddr: 0x1000083B4, symSize: 0x2C }
  - { offsetInCU: 0x189DA, offset: 0x189DA, size: 0x8, addend: 0x0, symName: __ZNSt3__121__map_node_destructorINS_9allocatorINS_11__tree_nodeINS_12__value_typeINS_12basic_stringIcNS_11char_traitsIcEENS1_IcEEEENS_6vectorIfNS1_IfEEEEEEPvEEEEEC1B7v160006ERSF_, symObjAddr: 0x77EC, symBinAddr: 0x1000083E0, symSize: 0x34 }
  - { offsetInCU: 0x18A19, offset: 0x18A19, size: 0x8, addend: 0x0, symName: __ZNSt3__110unique_ptrINS_11__tree_nodeINS_12__value_typeINS_12basic_stringIcNS_11char_traitsIcEENS_9allocatorIcEEEENS_6vectorIfNS6_IfEEEEEEPvEENS_21__map_node_destructorINS6_ISE_EEEEEC1B7v160006ILb1EvEEPSE_NS_16__dependent_typeINS_27__unique_ptr_deleter_sfinaeISH_EEXT_EE20__good_rval_ref_typeE, symObjAddr: 0x7820, symBinAddr: 0x100008414, symSize: 0x3C }
  - { offsetInCU: 0x18A6A, offset: 0x18A6A, size: 0x8, addend: 0x0, symName: __ZNSt3__116allocator_traitsINS_9allocatorINS_11__tree_nodeINS_12__value_typeINS_12basic_stringIcNS_11char_traitsIcEENS1_IcEEEENS_6vectorIfNS1_IfEEEEEEPvEEEEE9constructB7v160006IKS8_JRSI_EvEEvRSF_PT_DpOT0_, symObjAddr: 0x785C, symBinAddr: 0x100008450, symSize: 0x34 }
  - { offsetInCU: 0x18AC1, offset: 0x18AC1, size: 0x8, addend: 0x0, symName: __ZNKSt3__110unique_ptrINS_11__tree_nodeINS_12__value_typeINS_12basic_stringIcNS_11char_traitsIcEENS_9allocatorIcEEEENS_6vectorIfNS6_IfEEEEEEPvEENS_21__map_node_destructorINS6_ISE_EEEEEptB7v160006Ev, symObjAddr: 0x7890, symBinAddr: 0x100008484, symSize: 0x28 }
  - { offsetInCU: 0x18AE7, offset: 0x18AE7, size: 0x8, addend: 0x0, symName: __ZNSt3__110unique_ptrINS_11__tree_nodeINS_12__value_typeINS_12basic_stringIcNS_11char_traitsIcEENS_9allocatorIcEEEENS_6vectorIfNS6_IfEEEEEEPvEENS_21__map_node_destructorINS6_ISE_EEEEE11get_deleterB7v160006Ev, symObjAddr: 0x78B8, symBinAddr: 0x1000084AC, symSize: 0x24 }
  - { offsetInCU: 0x18B12, offset: 0x18B12, size: 0x8, addend: 0x0, symName: __ZNSt3__116allocator_traitsINS_9allocatorINS_11__tree_nodeINS_12__value_typeINS_12basic_stringIcNS_11char_traitsIcEENS1_IcEEEENS_6vectorIfNS1_IfEEEEEEPvEEEEE9constructB7v160006ISB_JEvEEvRSF_PT_DpOT0_, symObjAddr: 0x78DC, symBinAddr: 0x1000084D0, symSize: 0x2C }
  - { offsetInCU: 0x18B54, offset: 0x18B54, size: 0x8, addend: 0x0, symName: __ZNSt3__19allocatorINS_11__tree_nodeINS_12__value_typeINS_12basic_stringIcNS_11char_traitsIcEENS0_IcEEEENS_6vectorIfNS0_IfEEEEEEPvEEE8allocateB7v160006Em, symObjAddr: 0x7908, symBinAddr: 0x1000084FC, symSize: 0x8C }
  - { offsetInCU: 0x18B92, offset: 0x18B92, size: 0x8, addend: 0x0, symName: __ZNSt3__116allocator_traitsINS_9allocatorINS_11__tree_nodeINS_12__value_typeINS_12basic_stringIcNS_11char_traitsIcEENS1_IcEEEENS_6vectorIfNS1_IfEEEEEEPvEEEEE8max_sizeB7v160006ISF_vEEmRKSF_, symObjAddr: 0x7994, symBinAddr: 0x100008588, symSize: 0x24 }
  - { offsetInCU: 0x18BC0, offset: 0x18BC0, size: 0x8, addend: 0x0, symName: __ZNKSt3__19allocatorINS_11__tree_nodeINS_12__value_typeINS_12basic_stringIcNS_11char_traitsIcEENS0_IcEEEENS_6vectorIfNS0_IfEEEEEEPvEEE8max_sizeB7v160006Ev, symObjAddr: 0x79B8, symBinAddr: 0x1000085AC, symSize: 0x18 }
  - { offsetInCU: 0x18BE6, offset: 0x18BE6, size: 0x8, addend: 0x0, symName: __ZNSt3__121__map_node_destructorINS_9allocatorINS_11__tree_nodeINS_12__value_typeINS_12basic_stringIcNS_11char_traitsIcEENS1_IcEEEENS_6vectorIfNS1_IfEEEEEEPvEEEEEC2B7v160006ERSF_, symObjAddr: 0x79D0, symBinAddr: 0x1000085C4, symSize: 0x28 }
  - { offsetInCU: 0x18C1F, offset: 0x18C1F, size: 0x8, addend: 0x0, symName: __ZNSt3__110unique_ptrINS_11__tree_nodeINS_12__value_typeINS_12basic_stringIcNS_11char_traitsIcEENS_9allocatorIcEEEENS_6vectorIfNS6_IfEEEEEEPvEENS_21__map_node_destructorINS6_ISE_EEEEEC2B7v160006ILb1EvEEPSE_NS_16__dependent_typeINS_27__unique_ptr_deleter_sfinaeISH_EEXT_EE20__good_rval_ref_typeE, symObjAddr: 0x79F8, symBinAddr: 0x1000085EC, symSize: 0x5C }
  - { offsetInCU: 0x18C70, offset: 0x18C70, size: 0x8, addend: 0x0, symName: __ZNSt3__117__compressed_pairIPNS_11__tree_nodeINS_12__value_typeINS_12basic_stringIcNS_11char_traitsIcEENS_9allocatorIcEEEENS_6vectorIfNS6_IfEEEEEEPvEENS_21__map_node_destructorINS6_ISE_EEEEEC1B7v160006IRSF_SI_EEOT_OT0_, symObjAddr: 0x7A54, symBinAddr: 0x100008648, symSize: 0x3C }
  - { offsetInCU: 0x18CC8, offset: 0x18CC8, size: 0x8, addend: 0x0, symName: __ZNSt3__117__compressed_pairIPNS_11__tree_nodeINS_12__value_typeINS_12basic_stringIcNS_11char_traitsIcEENS_9allocatorIcEEEENS_6vectorIfNS6_IfEEEEEEPvEENS_21__map_node_destructorINS6_ISE_EEEEEC2B7v160006IRSF_SI_EEOT_OT0_, symObjAddr: 0x7A90, symBinAddr: 0x100008684, symSize: 0x48 }
  - { offsetInCU: 0x18D20, offset: 0x18D20, size: 0x8, addend: 0x0, symName: __ZNSt3__122__compressed_pair_elemIPNS_11__tree_nodeINS_12__value_typeINS_12basic_stringIcNS_11char_traitsIcEENS_9allocatorIcEEEENS_6vectorIfNS6_IfEEEEEEPvEELi0ELb0EEC2B7v160006IRSF_vEEOT_, symObjAddr: 0x7AD8, symBinAddr: 0x1000086CC, symSize: 0x24 }
  - { offsetInCU: 0x18D62, offset: 0x18D62, size: 0x8, addend: 0x0, symName: __ZNSt3__122__compressed_pair_elemINS_21__map_node_destructorINS_9allocatorINS_11__tree_nodeINS_12__value_typeINS_12basic_stringIcNS_11char_traitsIcEENS2_IcEEEENS_6vectorIfNS2_IfEEEEEEPvEEEEEELi1ELb0EEC2B7v160006ISH_vEEOT_, symObjAddr: 0x7AFC, symBinAddr: 0x1000086F0, symSize: 0x24 }
  - { offsetInCU: 0x18DA4, offset: 0x18DA4, size: 0x8, addend: 0x0, symName: __ZNSt3__19allocatorINS_11__tree_nodeINS_12__value_typeINS_12basic_stringIcNS_11char_traitsIcEENS0_IcEEEENS_6vectorIfNS0_IfEEEEEEPvEEE9constructB7v160006IKS7_JRSG_EEEvPT_DpOT0_, symObjAddr: 0x7B20, symBinAddr: 0x100008714, symSize: 0x30 }
  - { offsetInCU: 0x18DFA, offset: 0x18DFA, size: 0x8, addend: 0x0, symName: __ZNKSt3__117__compressed_pairIPNS_11__tree_nodeINS_12__value_typeINS_12basic_stringIcNS_11char_traitsIcEENS_9allocatorIcEEEENS_6vectorIfNS6_IfEEEEEEPvEENS_21__map_node_destructorINS6_ISE_EEEEE5firstB7v160006Ev, symObjAddr: 0x7B50, symBinAddr: 0x100008744, symSize: 0x24 }
  - { offsetInCU: 0x18E20, offset: 0x18E20, size: 0x8, addend: 0x0, symName: __ZNKSt3__122__compressed_pair_elemIPNS_11__tree_nodeINS_12__value_typeINS_12basic_stringIcNS_11char_traitsIcEENS_9allocatorIcEEEENS_6vectorIfNS6_IfEEEEEEPvEELi0ELb0EE5__getB7v160006Ev, symObjAddr: 0x7B74, symBinAddr: 0x100008768, symSize: 0x14 }
  - { offsetInCU: 0x18E46, offset: 0x18E46, size: 0x8, addend: 0x0, symName: __ZNSt3__117__compressed_pairIPNS_11__tree_nodeINS_12__value_typeINS_12basic_stringIcNS_11char_traitsIcEENS_9allocatorIcEEEENS_6vectorIfNS6_IfEEEEEEPvEENS_21__map_node_destructorINS6_ISE_EEEEE6secondB7v160006Ev, symObjAddr: 0x7B88, symBinAddr: 0x10000877C, symSize: 0x28 }
  - { offsetInCU: 0x18E6C, offset: 0x18E6C, size: 0x8, addend: 0x0, symName: __ZNSt3__122__compressed_pair_elemINS_21__map_node_destructorINS_9allocatorINS_11__tree_nodeINS_12__value_typeINS_12basic_stringIcNS_11char_traitsIcEENS2_IcEEEENS_6vectorIfNS2_IfEEEEEEPvEEEEEELi1ELb0EE5__getB7v160006Ev, symObjAddr: 0x7BB0, symBinAddr: 0x1000087A4, symSize: 0x14 }
  - { offsetInCU: 0x18E92, offset: 0x18E92, size: 0x8, addend: 0x0, symName: __ZNSt3__19allocatorINS_11__tree_nodeINS_12__value_typeINS_12basic_stringIcNS_11char_traitsIcEENS0_IcEEEENS_6vectorIfNS0_IfEEEEEEPvEEE9constructB7v160006ISA_JEEEvPT_DpOT0_, symObjAddr: 0x7BC4, symBinAddr: 0x1000087B8, symSize: 0x28 }
  - { offsetInCU: 0x18ED4, offset: 0x18ED4, size: 0x8, addend: 0x0, symName: __ZNSt3__16vectorIfNS_9allocatorIfEEEC1B7v160006Ev, symObjAddr: 0x7BEC, symBinAddr: 0x1000087E0, symSize: 0x2C }
  - { offsetInCU: 0x18EFE, offset: 0x18EFE, size: 0x8, addend: 0x0, symName: __ZNSt3__16vectorIfNS_9allocatorIfEEEC2B7v160006Ev, symObjAddr: 0x7C18, symBinAddr: 0x10000880C, symSize: 0x4C }
  - { offsetInCU: 0x18F28, offset: 0x18F28, size: 0x8, addend: 0x0, symName: __ZNSt3__117__compressed_pairIPfNS_9allocatorIfEEEC1B7v160006IDnNS_18__default_init_tagEEEOT_OT0_, symObjAddr: 0x7C64, symBinAddr: 0x100008858, symSize: 0x3C }
  - { offsetInCU: 0x18F80, offset: 0x18F80, size: 0x8, addend: 0x0, symName: __ZNSt3__117__compressed_pairIPfNS_9allocatorIfEEEC2B7v160006IDnNS_18__default_init_tagEEEOT_OT0_, symObjAddr: 0x7CB0, symBinAddr: 0x1000088A4, symSize: 0x40 }
  - { offsetInCU: 0x18FD8, offset: 0x18FD8, size: 0x8, addend: 0x0, symName: __ZNSt3__122__compressed_pair_elemIPfLi0ELb0EEC2B7v160006IDnvEEOT_, symObjAddr: 0x7CF0, symBinAddr: 0x1000088E4, symSize: 0x1C }
  - { offsetInCU: 0x1901A, offset: 0x1901A, size: 0x8, addend: 0x0, symName: __ZNSt3__122__compressed_pair_elemINS_9allocatorIfEELi1ELb1EEC2B7v160006ENS_18__default_init_tagE, symObjAddr: 0x7D0C, symBinAddr: 0x100008900, symSize: 0x2C }
  - { offsetInCU: 0x1904F, offset: 0x1904F, size: 0x8, addend: 0x0, symName: __ZNSt3__19allocatorIfEC2B7v160006Ev, symObjAddr: 0x7D38, symBinAddr: 0x10000892C, symSize: 0x2C }
  - { offsetInCU: 0x19079, offset: 0x19079, size: 0x8, addend: 0x0, symName: __ZNSt3__116__non_trivial_ifILb1ENS_9allocatorIfEEEC2B7v160006Ev, symObjAddr: 0x7D64, symBinAddr: 0x100008958, symSize: 0x14 }
  - { offsetInCU: 0x190A3, offset: 0x190A3, size: 0x8, addend: 0x0, symName: __ZNSt3__16__treeINS_12__value_typeINS_12basic_stringIcNS_11char_traitsIcEENS_9allocatorIcEEEENS_6vectorIfNS5_IfEEEEEENS_19__map_value_compareIS7_SB_NS_4lessIS7_EELb1EEENS5_ISB_EEE4sizeB7v160006Ev, symObjAddr: 0x7D78, symBinAddr: 0x10000896C, symSize: 0x28 }
  - { offsetInCU: 0x190C9, offset: 0x190C9, size: 0x8, addend: 0x0, symName: __ZNSt3__117__compressed_pairImNS_19__map_value_compareINS_12basic_stringIcNS_11char_traitsIcEENS_9allocatorIcEEEENS_12__value_typeIS7_NS_6vectorIfNS5_IfEEEEEENS_4lessIS7_EELb1EEEE5firstB7v160006Ev, symObjAddr: 0x7DA0, symBinAddr: 0x100008994, symSize: 0x24 }
  - { offsetInCU: 0x190EF, offset: 0x190EF, size: 0x8, addend: 0x0, symName: __ZNSt3__117__compressed_pairIPNS_11__tree_nodeINS_12__value_typeINS_12basic_stringIcNS_11char_traitsIcEENS_9allocatorIcEEEENS_6vectorIfNS6_IfEEEEEEPvEENS_21__map_node_destructorINS6_ISE_EEEEE5firstB7v160006Ev, symObjAddr: 0x7DC4, symBinAddr: 0x1000089B8, symSize: 0x24 }
  - { offsetInCU: 0x19115, offset: 0x19115, size: 0x8, addend: 0x0, symName: __ZNSt3__122__compressed_pair_elemIPNS_11__tree_nodeINS_12__value_typeINS_12basic_stringIcNS_11char_traitsIcEENS_9allocatorIcEEEENS_6vectorIfNS6_IfEEEEEEPvEELi0ELb0EE5__getB7v160006Ev, symObjAddr: 0x7DE8, symBinAddr: 0x1000089DC, symSize: 0x14 }
  - { offsetInCU: 0x1913B, offset: 0x1913B, size: 0x8, addend: 0x0, symName: __ZNSt3__110unique_ptrINS_11__tree_nodeINS_12__value_typeINS_12basic_stringIcNS_11char_traitsIcEENS_9allocatorIcEEEENS_6vectorIfNS6_IfEEEEEEPvEENS_21__map_node_destructorINS6_ISE_EEEEED2B7v160006Ev, symObjAddr: 0x7DFC, symBinAddr: 0x1000089F0, symSize: 0x30 }
  - { offsetInCU: 0x19165, offset: 0x19165, size: 0x8, addend: 0x0, symName: __ZNSt3__110unique_ptrINS_11__tree_nodeINS_12__value_typeINS_12basic_stringIcNS_11char_traitsIcEENS_9allocatorIcEEEENS_6vectorIfNS6_IfEEEEEEPvEENS_21__map_node_destructorINS6_ISE_EEEEE5resetB7v160006EPSE_, symObjAddr: 0x7E2C, symBinAddr: 0x100008A20, symSize: 0x78 }
  - { offsetInCU: 0x191A9, offset: 0x191A9, size: 0x8, addend: 0x0, symName: __ZNSt3__121__map_node_destructorINS_9allocatorINS_11__tree_nodeINS_12__value_typeINS_12basic_stringIcNS_11char_traitsIcEENS1_IcEEEENS_6vectorIfNS1_IfEEEEEEPvEEEEEclB7v160006EPSE_, symObjAddr: 0x7EA4, symBinAddr: 0x100008A98, symSize: 0xE4 }
  - { offsetInCU: 0x191DE, offset: 0x191DE, size: 0x8, addend: 0x0, symName: __ZNSt3__116allocator_traitsINS_9allocatorINS_11__tree_nodeINS_12__value_typeINS_12basic_stringIcNS_11char_traitsIcEENS1_IcEEEENS_6vectorIfNS1_IfEEEEEEPvEEEEE7destroyB7v160006ISB_vvEEvRSF_PT_, symObjAddr: 0x7F88, symBinAddr: 0x100008B7C, symSize: 0x28 }
  - { offsetInCU: 0x19218, offset: 0x19218, size: 0x8, addend: 0x0, symName: __ZNSt3__116allocator_traitsINS_9allocatorINS_11__tree_nodeINS_12__value_typeINS_12basic_stringIcNS_11char_traitsIcEENS1_IcEEEENS_6vectorIfNS1_IfEEEEEEPvEEEEE7destroyB7v160006IKS8_vvEEvRSF_PT_, symObjAddr: 0x7FB0, symBinAddr: 0x100008BA4, symSize: 0x28 }
  - { offsetInCU: 0x19252, offset: 0x19252, size: 0x8, addend: 0x0, symName: __ZNSt3__16vectorIfNS_9allocatorIfEEE9__end_capB7v160006Ev, symObjAddr: 0x7FD8, symBinAddr: 0x100008BCC, symSize: 0x28 }
  - { offsetInCU: 0x19278, offset: 0x19278, size: 0x8, addend: 0x0, symName: __ZNSt3__16vectorIfNS_9allocatorIfEEE22__construct_one_at_endB7v160006IJRKfEEEvDpOT_, symObjAddr: 0x8000, symBinAddr: 0x100008BF4, symSize: 0x98 }
  - { offsetInCU: 0x192C7, offset: 0x192C7, size: 0x8, addend: 0x0, symName: __ZNSt3__16vectorIfNS_9allocatorIfEEE21__push_back_slow_pathIRKfEEvOT_, symObjAddr: 0x8098, symBinAddr: 0x100008C8C, symSize: 0xE0 }
  - { offsetInCU: 0x19325, offset: 0x19325, size: 0x8, addend: 0x0, symName: __ZNSt3__117__compressed_pairIPfNS_9allocatorIfEEE5firstB7v160006Ev, symObjAddr: 0x8178, symBinAddr: 0x100008D6C, symSize: 0x24 }
  - { offsetInCU: 0x1934B, offset: 0x1934B, size: 0x8, addend: 0x0, symName: __ZNSt3__122__compressed_pair_elemIPfLi0ELb0EE5__getB7v160006Ev, symObjAddr: 0x819C, symBinAddr: 0x100008D90, symSize: 0x14 }
  - { offsetInCU: 0x1938A, offset: 0x1938A, size: 0x8, addend: 0x0, symName: __ZNSt3__16vectorIfNS_9allocatorIfEEE21_ConstructTransactionC1B7v160006ERS3_m, symObjAddr: 0x81B0, symBinAddr: 0x100008DA4, symSize: 0x3C }
  - { offsetInCU: 0x193D2, offset: 0x193D2, size: 0x8, addend: 0x0, symName: __ZNSt3__116allocator_traitsINS_9allocatorIfEEE9constructB7v160006IfJRKfEvEEvRS2_PT_DpOT0_, symObjAddr: 0x81EC, symBinAddr: 0x100008DE0, symSize: 0x34 }
  - { offsetInCU: 0x19429, offset: 0x19429, size: 0x8, addend: 0x0, symName: __ZNSt3__16vectorIfNS_9allocatorIfEEE21_ConstructTransactionD1B7v160006Ev, symObjAddr: 0x8220, symBinAddr: 0x100008E14, symSize: 0x2C }
  - { offsetInCU: 0x19453, offset: 0x19453, size: 0x8, addend: 0x0, symName: __ZNSt3__16vectorIfNS_9allocatorIfEEE21_ConstructTransactionC2B7v160006ERS3_m, symObjAddr: 0x824C, symBinAddr: 0x100008E40, symSize: 0x44 }
  - { offsetInCU: 0x1949B, offset: 0x1949B, size: 0x8, addend: 0x0, symName: __ZNSt3__19allocatorIfE9constructB7v160006IfJRKfEEEvPT_DpOT0_, symObjAddr: 0x8290, symBinAddr: 0x100008E84, symSize: 0x28 }
  - { offsetInCU: 0x194F1, offset: 0x194F1, size: 0x8, addend: 0x0, symName: __ZNSt3__16vectorIfNS_9allocatorIfEEE21_ConstructTransactionD2B7v160006Ev, symObjAddr: 0x82B8, symBinAddr: 0x100008EAC, symSize: 0x20 }
  - { offsetInCU: 0x1951B, offset: 0x1951B, size: 0x8, addend: 0x0, symName: __ZNKSt3__16vectorIfNS_9allocatorIfEEE11__recommendB7v160006Em, symObjAddr: 0x82D8, symBinAddr: 0x100008ECC, symSize: 0xB4 }
  - { offsetInCU: 0x19570, offset: 0x19570, size: 0x8, addend: 0x0, symName: __ZNSt3__114__split_bufferIfRNS_9allocatorIfEEEC1EmmS3_, symObjAddr: 0x838C, symBinAddr: 0x100008F80, symSize: 0x44 }
  - { offsetInCU: 0x195C6, offset: 0x195C6, size: 0x8, addend: 0x0, symName: __ZNSt3__114__split_bufferIfRNS_9allocatorIfEEED1Ev, symObjAddr: 0x84E8, symBinAddr: 0x1000090DC, symSize: 0x2C }
  - { offsetInCU: 0x195F2, offset: 0x195F2, size: 0x8, addend: 0x0, symName: __ZNKSt3__16vectorIfNS_9allocatorIfEEE8max_sizeEv, symObjAddr: 0x8514, symBinAddr: 0x100009108, symSize: 0x74 }
  - { offsetInCU: 0x1961A, offset: 0x1961A, size: 0x8, addend: 0x0, symName: __ZNKSt3__16vectorIfNS_9allocatorIfEEE20__throw_length_errorB7v160006Ev, symObjAddr: 0x8588, symBinAddr: 0x10000917C, symSize: 0x1C }
  - { offsetInCU: 0x1964A, offset: 0x1964A, size: 0x8, addend: 0x0, symName: __ZNSt3__116allocator_traitsINS_9allocatorIfEEE8max_sizeB7v160006IS2_vEEmRKS2_, symObjAddr: 0x85A4, symBinAddr: 0x100009198, symSize: 0x24 }
  - { offsetInCU: 0x19678, offset: 0x19678, size: 0x8, addend: 0x0, symName: __ZNKSt3__16vectorIfNS_9allocatorIfEEE7__allocB7v160006Ev, symObjAddr: 0x85C8, symBinAddr: 0x1000091BC, symSize: 0x28 }
  - { offsetInCU: 0x1969E, offset: 0x1969E, size: 0x8, addend: 0x0, symName: __ZNKSt3__19allocatorIfE8max_sizeB7v160006Ev, symObjAddr: 0x85F0, symBinAddr: 0x1000091E4, symSize: 0x14 }
  - { offsetInCU: 0x196C4, offset: 0x196C4, size: 0x8, addend: 0x0, symName: __ZNKSt3__117__compressed_pairIPfNS_9allocatorIfEEE6secondB7v160006Ev, symObjAddr: 0x8604, symBinAddr: 0x1000091F8, symSize: 0x24 }
  - { offsetInCU: 0x196EA, offset: 0x196EA, size: 0x8, addend: 0x0, symName: __ZNKSt3__122__compressed_pair_elemINS_9allocatorIfEELi1ELb1EE5__getB7v160006Ev, symObjAddr: 0x8628, symBinAddr: 0x10000921C, symSize: 0x14 }
  - { offsetInCU: 0x19710, offset: 0x19710, size: 0x8, addend: 0x0, symName: __ZNSt3__114__split_bufferIfRNS_9allocatorIfEEEC2EmmS3_, symObjAddr: 0x863C, symBinAddr: 0x100009230, symSize: 0xD4 }
  - { offsetInCU: 0x19783, offset: 0x19783, size: 0x8, addend: 0x0, symName: __ZNSt3__117__compressed_pairIPfRNS_9allocatorIfEEEC1B7v160006IDnS4_EEOT_OT0_, symObjAddr: 0x8710, symBinAddr: 0x100009304, symSize: 0x3C }
  - { offsetInCU: 0x197DB, offset: 0x197DB, size: 0x8, addend: 0x0, symName: __ZNSt3__114__split_bufferIfRNS_9allocatorIfEEE7__allocB7v160006Ev, symObjAddr: 0x878C, symBinAddr: 0x100009380, symSize: 0x28 }
  - { offsetInCU: 0x19801, offset: 0x19801, size: 0x8, addend: 0x0, symName: __ZNSt3__114__split_bufferIfRNS_9allocatorIfEEE9__end_capB7v160006Ev, symObjAddr: 0x87B4, symBinAddr: 0x1000093A8, symSize: 0x28 }
  - { offsetInCU: 0x19827, offset: 0x19827, size: 0x8, addend: 0x0, symName: __ZNSt3__117__compressed_pairIPfRNS_9allocatorIfEEEC2B7v160006IDnS4_EEOT_OT0_, symObjAddr: 0x87DC, symBinAddr: 0x1000093D0, symSize: 0x48 }
  - { offsetInCU: 0x1987F, offset: 0x1987F, size: 0x8, addend: 0x0, symName: __ZNSt3__122__compressed_pair_elemIRNS_9allocatorIfEELi1ELb0EEC2B7v160006IS3_vEEOT_, symObjAddr: 0x8824, symBinAddr: 0x100009418, symSize: 0x20 }
  - { offsetInCU: 0x198C1, offset: 0x198C1, size: 0x8, addend: 0x0, symName: __ZNSt3__19allocatorIfE8allocateB7v160006Em, symObjAddr: 0x8844, symBinAddr: 0x100009438, symSize: 0x84 }
  - { offsetInCU: 0x198F5, offset: 0x198F5, size: 0x8, addend: 0x0, symName: __ZNSt3__117__compressed_pairIPfRNS_9allocatorIfEEE6secondB7v160006Ev, symObjAddr: 0x88C8, symBinAddr: 0x1000094BC, symSize: 0x28 }
  - { offsetInCU: 0x1991B, offset: 0x1991B, size: 0x8, addend: 0x0, symName: __ZNSt3__122__compressed_pair_elemIRNS_9allocatorIfEELi1ELb0EE5__getB7v160006Ev, symObjAddr: 0x88F0, symBinAddr: 0x1000094E4, symSize: 0x18 }
  - { offsetInCU: 0x19941, offset: 0x19941, size: 0x8, addend: 0x0, symName: __ZNSt3__117__compressed_pairIPfRNS_9allocatorIfEEE5firstB7v160006Ev, symObjAddr: 0x8908, symBinAddr: 0x1000094FC, symSize: 0x24 }
  - { offsetInCU: 0x19967, offset: 0x19967, size: 0x8, addend: 0x0, symName: __ZNSt3__116reverse_iteratorIPfEC1B7v160006ES1_, symObjAddr: 0x8A14, symBinAddr: 0x100009608, symSize: 0x34 }
  - { offsetInCU: 0x1999F, offset: 0x1999F, size: 0x8, addend: 0x0, symName: __ZNKSt3__116reverse_iteratorIPfE4baseB7v160006Ev, symObjAddr: 0x8A48, symBinAddr: 0x10000963C, symSize: 0x18 }
  - { offsetInCU: 0x199C5, offset: 0x199C5, size: 0x8, addend: 0x0, symName: __ZNKSt3__16vectorIfNS_9allocatorIfEEE14__annotate_newB7v160006Em, symObjAddr: 0x8A9C, symBinAddr: 0x100009690, symSize: 0xAC }
  - { offsetInCU: 0x199FA, offset: 0x199FA, size: 0x8, addend: 0x0, symName: __ZNKSt3__116reverse_iteratorIPfEdeB7v160006Ev, symObjAddr: 0x8BF0, symBinAddr: 0x1000097E4, symSize: 0x28 }
  - { offsetInCU: 0x19A2E, offset: 0x19A2E, size: 0x8, addend: 0x0, symName: __ZNSt3__116reverse_iteratorIPfEppB7v160006Ev, symObjAddr: 0x8C18, symBinAddr: 0x10000980C, symSize: 0x20 }
  - { offsetInCU: 0x19A59, offset: 0x19A59, size: 0x8, addend: 0x0, symName: __ZNSt3__119__to_address_helperINS_16reverse_iteratorIPfEEvE6__callB7v160006ERKS3_, symObjAddr: 0x8CB0, symBinAddr: 0x1000098A4, symSize: 0x4C }
  - { offsetInCU: 0x19A7C, offset: 0x19A7C, size: 0x8, addend: 0x0, symName: __ZNKSt3__116reverse_iteratorIPfEptB7v160006Ev, symObjAddr: 0x8CFC, symBinAddr: 0x1000098F0, symSize: 0x24 }
  - { offsetInCU: 0x19AC6, offset: 0x19AC6, size: 0x8, addend: 0x0, symName: __ZNKSt3__111__move_loopINS_17_ClassicAlgPolicyEEclB7v160006INS_16reverse_iteratorIPfEES6_S6_EENS_4pairIT_T1_EES8_T0_S9_, symObjAddr: 0x8FB0, symBinAddr: 0x100009BA4, symSize: 0xA0 }
  - { offsetInCU: 0x19B37, offset: 0x19B37, size: 0x8, addend: 0x0, symName: __ZNSt3__18_IterOpsINS_17_ClassicAlgPolicyEE11__iter_moveB7v160006IRNS_16reverse_iteratorIPfEEEENS_9enable_ifIXsr12is_referenceIDTdeclsr3stdE7declvalIRT_EEEEE5valueEDTclsr3stdE4movedeclsr3stdE7declvalISA_EEEEE4typeEOS9_, symObjAddr: 0x91B0, symBinAddr: 0x100009DA4, symSize: 0x28 }
  - { offsetInCU: 0x19B63, offset: 0x19B63, size: 0x8, addend: 0x0, symName: __ZNSt3__18_IterOpsINS_17_ClassicAlgPolicyEE25__validate_iter_referenceB7v160006IRNS_16reverse_iteratorIPfEEEEvv, symObjAddr: 0x91D8, symBinAddr: 0x100009DCC, symSize: 0x4 }
  - { offsetInCU: 0x19B81, offset: 0x19B81, size: 0x8, addend: 0x0, symName: __ZNSt3__118__unwrap_iter_implINS_16reverse_iteratorIPfEELb0EE8__unwrapB7v160006ES3_, symObjAddr: 0x91DC, symBinAddr: 0x100009DD0, symSize: 0x24 }
  - { offsetInCU: 0x19BA4, offset: 0x19BA4, size: 0x8, addend: 0x0, symName: __ZNSt3__14pairINS_16reverse_iteratorIPfEES3_EC1B7v160006ERKS3_S6_, symObjAddr: 0x9200, symBinAddr: 0x100009DF4, symSize: 0x3C }
  - { offsetInCU: 0x19BEA, offset: 0x19BEA, size: 0x8, addend: 0x0, symName: __ZNSt3__14pairINS_16reverse_iteratorIPfEES3_EC2B7v160006ERKS3_S6_, symObjAddr: 0x923C, symBinAddr: 0x100009E30, symSize: 0x34 }
  - { offsetInCU: 0x19C30, offset: 0x19C30, size: 0x8, addend: 0x0, symName: __ZNSt3__118__unwrap_iter_implINS_16reverse_iteratorIPfEELb0EE8__rewrapB7v160006ES3_S3_, symObjAddr: 0x9270, symBinAddr: 0x100009E64, symSize: 0x2C }
  - { offsetInCU: 0x19C5E, offset: 0x19C5E, size: 0x8, addend: 0x0, symName: __ZNSt3__116reverse_iteratorIPfEC2B7v160006ES1_, symObjAddr: 0x929C, symBinAddr: 0x100009E90, symSize: 0x28 }
  - { offsetInCU: 0x19C96, offset: 0x19C96, size: 0x8, addend: 0x0, symName: __ZNSt3__114__split_bufferIfRNS_9allocatorIfEEED2Ev, symObjAddr: 0x92C4, symBinAddr: 0x100009EB8, symSize: 0x80 }
  - { offsetInCU: 0x19CC2, offset: 0x19CC2, size: 0x8, addend: 0x0, symName: __ZNSt3__114__split_bufferIfRNS_9allocatorIfEEE5clearB7v160006Ev, symObjAddr: 0x9344, symBinAddr: 0x100009F38, symSize: 0x28 }
  - { offsetInCU: 0x19CE8, offset: 0x19CE8, size: 0x8, addend: 0x0, symName: __ZNKSt3__114__split_bufferIfRNS_9allocatorIfEEE8capacityB7v160006Ev, symObjAddr: 0x936C, symBinAddr: 0x100009F60, symSize: 0x40 }
  - { offsetInCU: 0x19D0E, offset: 0x19D0E, size: 0x8, addend: 0x0, symName: __ZNSt3__114__split_bufferIfRNS_9allocatorIfEEE17__destruct_at_endB7v160006EPf, symObjAddr: 0x93AC, symBinAddr: 0x100009FA0, symSize: 0x2C }
  - { offsetInCU: 0x19D42, offset: 0x19D42, size: 0x8, addend: 0x0, symName: __ZNSt3__114__split_bufferIfRNS_9allocatorIfEEE17__destruct_at_endB7v160006EPfNS_17integral_constantIbLb0EEE, symObjAddr: 0x93D8, symBinAddr: 0x100009FCC, symSize: 0x94 }
  - { offsetInCU: 0x19D83, offset: 0x19D83, size: 0x8, addend: 0x0, symName: __ZNKSt3__114__split_bufferIfRNS_9allocatorIfEEE9__end_capB7v160006Ev, symObjAddr: 0x946C, symBinAddr: 0x10000A060, symSize: 0x28 }
  - { offsetInCU: 0x19DA9, offset: 0x19DA9, size: 0x8, addend: 0x0, symName: __ZNKSt3__117__compressed_pairIPfRNS_9allocatorIfEEE5firstB7v160006Ev, symObjAddr: 0x9494, symBinAddr: 0x10000A088, symSize: 0x24 }
  - { offsetInCU: 0x19DCF, offset: 0x19DCF, size: 0x8, addend: 0x0, symName: __ZNSt3__111char_traitsIcE6lengthEPKc, symObjAddr: 0x96AC, symBinAddr: 0x10000A2A0, symSize: 0x48 }
  - { offsetInCU: 0x19E10, offset: 0x19E10, size: 0x8, addend: 0x0, symName: __ZNKSt3__113basic_ostreamIcNS_11char_traitsIcEEE6sentrycvbB7v160006Ev, symObjAddr: 0x96F4, symBinAddr: 0x10000A2E8, symSize: 0x1C }
  - { offsetInCU: 0x19E36, offset: 0x19E36, size: 0x8, addend: 0x0, symName: __ZNSt3__119ostreambuf_iteratorIcNS_11char_traitsIcEEEC1B7v160006ERNS_13basic_ostreamIcS2_EE, symObjAddr: 0x9958, symBinAddr: 0x10000A54C, symSize: 0x34 }
  - { offsetInCU: 0x19E6E, offset: 0x19E6E, size: 0x8, addend: 0x0, symName: __ZNKSt3__18ios_base5flagsB7v160006Ev, symObjAddr: 0x998C, symBinAddr: 0x10000A580, symSize: 0x18 }
  - { offsetInCU: 0x19E96, offset: 0x19E96, size: 0x8, addend: 0x0, symName: __ZNKSt3__19basic_iosIcNS_11char_traitsIcEEE4fillB7v160006Ev, symObjAddr: 0x99A4, symBinAddr: 0x10000A598, symSize: 0x64 }
  - { offsetInCU: 0x19EBE, offset: 0x19EBE, size: 0x8, addend: 0x0, symName: __ZNKSt3__119ostreambuf_iteratorIcNS_11char_traitsIcEEE6failedB7v160006Ev, symObjAddr: 0x9A08, symBinAddr: 0x10000A5FC, symSize: 0x24 }
  - { offsetInCU: 0x19EE4, offset: 0x19EE4, size: 0x8, addend: 0x0, symName: __ZNKSt3__18ios_base5widthB7v160006Ev, symObjAddr: 0x9A2C, symBinAddr: 0x10000A620, symSize: 0x18 }
  - { offsetInCU: 0x19F0C, offset: 0x19F0C, size: 0x8, addend: 0x0, symName: __ZNSt3__115basic_streambufIcNS_11char_traitsIcEEE5sputnB7v160006EPKcl, symObjAddr: 0x9A44, symBinAddr: 0x10000A638, symSize: 0x3C }
  - { offsetInCU: 0x19F4E, offset: 0x19F4E, size: 0x8, addend: 0x0, symName: __ZNSt3__112basic_stringIcNS_11char_traitsIcEENS_9allocatorIcEEEC1B7v160006Emc, symObjAddr: 0x9A80, symBinAddr: 0x10000A674, symSize: 0x3C }
  - { offsetInCU: 0x19F96, offset: 0x19F96, size: 0x8, addend: 0x0, symName: __ZNSt3__18ios_base5widthB7v160006El, symObjAddr: 0x9ABC, symBinAddr: 0x10000A6B0, symSize: 0x2C }
  - { offsetInCU: 0x19FDC, offset: 0x19FDC, size: 0x8, addend: 0x0, symName: __ZNSt3__112basic_stringIcNS_11char_traitsIcEENS_9allocatorIcEEEC2B7v160006Emc, symObjAddr: 0x9AE8, symBinAddr: 0x10000A6DC, symSize: 0x54 }
  - { offsetInCU: 0x1A024, offset: 0x1A024, size: 0x8, addend: 0x0, symName: __ZNSt3__119ostreambuf_iteratorIcNS_11char_traitsIcEEEC2B7v160006ERNS_13basic_ostreamIcS2_EE, symObjAddr: 0x9B3C, symBinAddr: 0x10000A730, symSize: 0x68 }
  - { offsetInCU: 0x1A05C, offset: 0x1A05C, size: 0x8, addend: 0x0, symName: __ZNSt3__112basic_stringIcNS_11char_traitsIcEENS_9allocatorIcEEEC2B7v160006IDnEEPKc, symObjAddr: 0x9BC8, symBinAddr: 0x10000A7BC, symSize: 0x60 }
  - { offsetInCU: 0x1A09A, offset: 0x1A09A, size: 0x8, addend: 0x0, symName: __ZNSt3__16__treeINS_12__value_typeINS_12basic_stringIcNS_11char_traitsIcEENS_9allocatorIcEEEENS_3mapIS7_NS_6vectorIfNS5_IfEEEENS_4lessIS7_EENS5_INS_4pairIKS7_SB_EEEEEEEENS_19__map_value_compareIS7_SJ_SD_Lb1EEENS5_ISJ_EEE5beginB7v160006Ev, symObjAddr: 0x9C28, symBinAddr: 0x10000A81C, symSize: 0x34 }
  - { offsetInCU: 0x1A0C0, offset: 0x1A0C0, size: 0x8, addend: 0x0, symName: __ZNSt3__114__map_iteratorINS_15__tree_iteratorINS_12__value_typeINS_12basic_stringIcNS_11char_traitsIcEENS_9allocatorIcEEEENS_3mapIS8_NS_6vectorIfNS6_IfEEEENS_4lessIS8_EENS6_INS_4pairIKS8_SC_EEEEEEEEPNS_11__tree_nodeISK_PvEElEEEC1B7v160006ESP_, symObjAddr: 0x9C5C, symBinAddr: 0x10000A850, symSize: 0x34 }
  - { offsetInCU: 0x1A0F9, offset: 0x1A0F9, size: 0x8, addend: 0x0, symName: __ZNSt3__115__tree_iteratorINS_12__value_typeINS_12basic_stringIcNS_11char_traitsIcEENS_9allocatorIcEEEENS_3mapIS7_NS_6vectorIfNS5_IfEEEENS_4lessIS7_EENS5_INS_4pairIKS7_SB_EEEEEEEEPNS_11__tree_nodeISJ_PvEElEC1B7v160006EPNS_15__tree_end_nodeIPNS_16__tree_node_baseISL_EEEE, symObjAddr: 0x9C90, symBinAddr: 0x10000A884, symSize: 0x34 }
  - { offsetInCU: 0x1A132, offset: 0x1A132, size: 0x8, addend: 0x0, symName: __ZNSt3__115__tree_iteratorINS_12__value_typeINS_12basic_stringIcNS_11char_traitsIcEENS_9allocatorIcEEEENS_3mapIS7_NS_6vectorIfNS5_IfEEEENS_4lessIS7_EENS5_INS_4pairIKS7_SB_EEEEEEEEPNS_11__tree_nodeISJ_PvEElEC2B7v160006EPNS_15__tree_end_nodeIPNS_16__tree_node_baseISL_EEEE, symObjAddr: 0x9CC4, symBinAddr: 0x10000A8B8, symSize: 0x20 }
  - { offsetInCU: 0x1A16B, offset: 0x1A16B, size: 0x8, addend: 0x0, symName: __ZNSt3__114__map_iteratorINS_15__tree_iteratorINS_12__value_typeINS_12basic_stringIcNS_11char_traitsIcEENS_9allocatorIcEEEENS_3mapIS8_NS_6vectorIfNS6_IfEEEENS_4lessIS8_EENS6_INS_4pairIKS8_SC_EEEEEEEEPNS_11__tree_nodeISK_PvEElEEEC2B7v160006ESP_, symObjAddr: 0x9CE4, symBinAddr: 0x10000A8D8, symSize: 0x20 }
  - { offsetInCU: 0x1A1A4, offset: 0x1A1A4, size: 0x8, addend: 0x0, symName: __ZNSt3__16__treeINS_12__value_typeINS_12basic_stringIcNS_11char_traitsIcEENS_9allocatorIcEEEENS_3mapIS7_NS_6vectorIfNS5_IfEEEENS_4lessIS7_EENS5_INS_4pairIKS7_SB_EEEEEEEENS_19__map_value_compareIS7_SJ_SD_Lb1EEENS5_ISJ_EEE3endB7v160006Ev, symObjAddr: 0x9D04, symBinAddr: 0x10000A8F8, symSize: 0x34 }
  - { offsetInCU: 0x1A1CA, offset: 0x1A1CA, size: 0x8, addend: 0x0, symName: __ZNSt3__115__tree_iteratorINS_12__value_typeINS_12basic_stringIcNS_11char_traitsIcEENS_9allocatorIcEEEENS_3mapIS7_NS_6vectorIfNS5_IfEEEENS_4lessIS7_EENS5_INS_4pairIKS7_SB_EEEEEEEEPNS_11__tree_nodeISJ_PvEElEppB7v160006Ev, symObjAddr: 0x9D9C, symBinAddr: 0x10000A990, symSize: 0x38 }
  - { offsetInCU: 0x1A1F0, offset: 0x1A1F0, size: 0x8, addend: 0x0, symName: __ZNKSt3__115__tree_iteratorINS_12__value_typeINS_12basic_stringIcNS_11char_traitsIcEENS_9allocatorIcEEEENS_3mapIS7_NS_6vectorIfNS5_IfEEEENS_4lessIS7_EENS5_INS_4pairIKS7_SB_EEEEEEEEPNS_11__tree_nodeISJ_PvEElEptB7v160006Ev, symObjAddr: 0x9E94, symBinAddr: 0x10000AA88, symSize: 0x2C }
  - { offsetInCU: 0x1A216, offset: 0x1A216, size: 0x8, addend: 0x0, symName: __ZNSt3__114pointer_traitsIPNS_12__value_typeINS_12basic_stringIcNS_11char_traitsIcEENS_9allocatorIcEEEENS_3mapIS7_NS_6vectorIfNS5_IfEEEENS_4lessIS7_EENS5_INS_4pairIKS7_SB_EEEEEEEEE10pointer_toB7v160006ERSJ_, symObjAddr: 0x9EC0, symBinAddr: 0x10000AAB4, symSize: 0x14 }
  - { offsetInCU: 0x1A239, offset: 0x1A239, size: 0x8, addend: 0x0, symName: __ZNKSt3__115__tree_iteratorINS_12__value_typeINS_12basic_stringIcNS_11char_traitsIcEENS_9allocatorIcEEEENS_3mapIS7_NS_6vectorIfNS5_IfEEEENS_4lessIS7_EENS5_INS_4pairIKS7_SB_EEEEEEEEPNS_11__tree_nodeISJ_PvEElE8__get_npB7v160006Ev, symObjAddr: 0x9ED4, symBinAddr: 0x10000AAC8, symSize: 0x18 }
  - { offsetInCU: 0x1A25F, offset: 0x1A25F, size: 0x8, addend: 0x0, symName: __ZNKSt3__16__treeINS_12__value_typeINS_12basic_stringIcNS_11char_traitsIcEENS_9allocatorIcEEEENS_6vectorIfNS5_IfEEEEEENS_19__map_value_compareIS7_SB_NS_4lessIS7_EELb1EEENS5_ISB_EEE5beginB7v160006Ev, symObjAddr: 0x9EEC, symBinAddr: 0x10000AAE0, symSize: 0x34 }
  - { offsetInCU: 0x1A285, offset: 0x1A285, size: 0x8, addend: 0x0, symName: __ZNSt3__120__map_const_iteratorINS_21__tree_const_iteratorINS_12__value_typeINS_12basic_stringIcNS_11char_traitsIcEENS_9allocatorIcEEEENS_6vectorIfNS6_IfEEEEEEPNS_11__tree_nodeISC_PvEElEEEC1B7v160006ESH_, symObjAddr: 0x9F20, symBinAddr: 0x10000AB14, symSize: 0x34 }
  - { offsetInCU: 0x1A2BE, offset: 0x1A2BE, size: 0x8, addend: 0x0, symName: __ZNKSt3__16__treeINS_12__value_typeINS_12basic_stringIcNS_11char_traitsIcEENS_9allocatorIcEEEENS_6vectorIfNS5_IfEEEEEENS_19__map_value_compareIS7_SB_NS_4lessIS7_EELb1EEENS5_ISB_EEE12__begin_nodeB7v160006Ev, symObjAddr: 0x9F54, symBinAddr: 0x10000AB48, symSize: 0x14 }
  - { offsetInCU: 0x1A2E4, offset: 0x1A2E4, size: 0x8, addend: 0x0, symName: __ZNSt3__121__tree_const_iteratorINS_12__value_typeINS_12basic_stringIcNS_11char_traitsIcEENS_9allocatorIcEEEENS_6vectorIfNS5_IfEEEEEEPNS_11__tree_nodeISB_PvEElEC1B7v160006EPNS_15__tree_end_nodeIPNS_16__tree_node_baseISD_EEEE, symObjAddr: 0x9F68, symBinAddr: 0x10000AB5C, symSize: 0x34 }
  - { offsetInCU: 0x1A31D, offset: 0x1A31D, size: 0x8, addend: 0x0, symName: __ZNSt3__121__tree_const_iteratorINS_12__value_typeINS_12basic_stringIcNS_11char_traitsIcEENS_9allocatorIcEEEENS_6vectorIfNS5_IfEEEEEEPNS_11__tree_nodeISB_PvEElEC2B7v160006EPNS_15__tree_end_nodeIPNS_16__tree_node_baseISD_EEEE, symObjAddr: 0x9F9C, symBinAddr: 0x10000AB90, symSize: 0x20 }
  - { offsetInCU: 0x1A356, offset: 0x1A356, size: 0x8, addend: 0x0, symName: __ZNSt3__120__map_const_iteratorINS_21__tree_const_iteratorINS_12__value_typeINS_12basic_stringIcNS_11char_traitsIcEENS_9allocatorIcEEEENS_6vectorIfNS6_IfEEEEEEPNS_11__tree_nodeISC_PvEElEEEC2B7v160006ESH_, symObjAddr: 0x9FBC, symBinAddr: 0x10000ABB0, symSize: 0x20 }
  - { offsetInCU: 0x1A38F, offset: 0x1A38F, size: 0x8, addend: 0x0, symName: __ZNKSt3__16__treeINS_12__value_typeINS_12basic_stringIcNS_11char_traitsIcEENS_9allocatorIcEEEENS_6vectorIfNS5_IfEEEEEENS_19__map_value_compareIS7_SB_NS_4lessIS7_EELb1EEENS5_ISB_EEE3endB7v160006Ev, symObjAddr: 0x9FDC, symBinAddr: 0x10000ABD0, symSize: 0x34 }
  - { offsetInCU: 0x1A3B5, offset: 0x1A3B5, size: 0x8, addend: 0x0, symName: __ZNSt3__121__tree_const_iteratorINS_12__value_typeINS_12basic_stringIcNS_11char_traitsIcEENS_9allocatorIcEEEENS_6vectorIfNS5_IfEEEEEEPNS_11__tree_nodeISB_PvEElEppB7v160006Ev, symObjAddr: 0xA074, symBinAddr: 0x10000AC68, symSize: 0x38 }
  - { offsetInCU: 0x1A3DB, offset: 0x1A3DB, size: 0x8, addend: 0x0, symName: __ZNKSt3__121__tree_const_iteratorINS_12__value_typeINS_12basic_stringIcNS_11char_traitsIcEENS_9allocatorIcEEEENS_6vectorIfNS5_IfEEEEEEPNS_11__tree_nodeISB_PvEElEptB7v160006Ev, symObjAddr: 0xA0AC, symBinAddr: 0x10000ACA0, symSize: 0x2C }
  - { offsetInCU: 0x1A401, offset: 0x1A401, size: 0x8, addend: 0x0, symName: __ZNSt3__114pointer_traitsIPKNS_12__value_typeINS_12basic_stringIcNS_11char_traitsIcEENS_9allocatorIcEEEENS_6vectorIfNS5_IfEEEEEEE10pointer_toB7v160006ERSC_, symObjAddr: 0xA0D8, symBinAddr: 0x10000ACCC, symSize: 0x14 }
  - { offsetInCU: 0x1A424, offset: 0x1A424, size: 0x8, addend: 0x0, symName: __ZNKSt3__121__tree_const_iteratorINS_12__value_typeINS_12basic_stringIcNS_11char_traitsIcEENS_9allocatorIcEEEENS_6vectorIfNS5_IfEEEEEEPNS_11__tree_nodeISB_PvEElE8__get_npB7v160006Ev, symObjAddr: 0xA0EC, symBinAddr: 0x10000ACE0, symSize: 0x18 }
...
